(lp0
(dp1
S'iterationMax'
p2
I10
sS'itemsCounts'
p3
I10
sS'generatedDataNumber'
p4
I10
sS'typeSelectionMode'
p5
S'AS'
p6
sS'simHeight'
p7
I10
sS'endTime'
p8
F1525534218.02086
sS'reuseTree'
p9
S' False'
p10
sS'beginTime'
p11
F1525534187.702556
sS'timeSteps'
p12
I42
sS'agentsCounts'
p13
I1
sS'simWidth'
p14
I10
sS'estimationMode'
p15
S'ABU'
p16
sS'maxDepth'
p17
I10
sa(dp18
I0
(dp19
S'l2TypeProbHistory'
p20
(lp21
F0.06
aF0.171021377672209
aF0.016682113067655237
aF0.06727923999377045
aF0.18276366584991804
aF0.01907270733843018
aF0.0010084520106011959
aF0.004785553241895376
aF0.00024258625398219239
aF1.2137704353768327e-05
aF6.068362364562017e-07
aF3.0345188132342226e-08
aF1.4565366148955945e-07
aF6.990628995764616e-07
aF3.4957625608954813e-08
aF1.7478924835308016e-09
aF8.739465218443625e-11
aF4.369732330956762e-12
aF2.0974708768660954e-11
aF1.0067845417461344e-10
aF5.033931583630828e-12
aF2.5169660136883284e-13
aF1.2584830123909877e-14
aF6.292415063341644e-16
aF3.146207531705489e-17
aF1.5731037658536113e-18
aF7.865518829268274e-20
aF3.9327594146341416e-21
aF1.9663797073170712e-22
aF9.438622595121942e-22
aF4.53053884565853e-21
aF2.1746586459160935e-20
aF1.0438361500397233e-19
aF5.010413520190635e-19
aF2.50520676009534e-20
aF1.202499244845761e-19
aF6.012496224228818e-21
aF2.885998187629832e-20
aF1.3852791300623165e-19
aF6.649339824299054e-19
aF3.1916831156633968e-18
aF1.5320078955180882e-17
aF1.5320078955180882e-17
asS'f1'
p22
(lp23
cnumpy.core.multiarray
scalar
p24
(cnumpy
dtype
p25
(S'f8'
p26
I0
I1
tp27
Rp28
(I3
S'<'
p29
NNNI-1
I-1
I0
tp30
bS'{\x94\xc5\x9c\xaa\xba\xeb?'
p31
tp32
Rp33
ag24
(g28
S'\x1e\xec\xc2N\x91\xc9\xea?'
p34
tp35
Rp36
ag24
(g28
S'V\x8d\x83\xb4y\xd8\xf1?'
p37
tp38
Rp39
asS'f2'
p40
(lp41
g24
(g28
S'{\x94\xc5\x9c\xaa\xba\xeb?'
p42
tp43
Rp44
ag24
(g28
S'\x1e\xec\xc2N\x91\xc9\xea?'
p45
tp46
Rp47
ag24
(g28
S'V\x8d\x83\xb4y\xd8\xf1?'
p48
tp49
Rp50
asS'last_estimated_value'
p51
(iparameter_estimation
Parameter
p52
(dp53
S'min_max'
p54
(lp55
(I0
I1
tp56
a(F0.1
I1
tp57
a(F0.1
I1
tp58
asS'radius'
p59
g47
sS'angle'
p60
g50
sS'iteration'
p61
I0
sS'level'
p62
g44
sbsS'l1EstimationHistory'
p63
S'[[0.07,0.75,0.3],[0.30357680076416205,0.5035132863852014,0.45189655090002834],[0.15332172194810573,0.3719912009356694,0.368810032210258],[0.30357680076416205,0.5035132863852014,0.45189655090002834],[0.1491537117483554,0.5316642292676976,0.32125306918565777],[0.15332172194810573,0.3719912009356694,0.368810032210258],[0.15332172194810573,0.3719912009356694,0.368810032210258],[0.2678404719215288,0.5578805391176197,0.4326268792460192],[0.15332172194810573,0.3719912009356694,0.368810032210258],[0.8665364324521267,1.115350442058877,0.8371054209050156],[0.0009017191428554196,0.14383268746213246,0.2606382469726114],[0.18132282753611592,0.31458229277975036,0.3446706703003054],[0.0009017191428554196,0.14383268746213246,0.2606382469726114],[0.1491537117483554,0.5316642292676976,0.32125306918565777],[0.8665364324521267,1.115350442058877,0.8371054209050156],[0.20893883741237124,0.5150705157026374,0.3935422692711562],[0.20893883741237124,0.5150705157026374,0.3935422692711562],[0.2678404719215288,0.5578805391176197,0.4326268792460192],[0.30357680076416205,0.5035132863852014,0.45189655090002834],[0.1491537117483554,0.5316642292676976,0.32125306918565777],[0.2490380001565217,0.59453947415242,0.40062589028654705],[0.2490380001565217,0.59453947415242,0.40062589028654705],[0.15332172194810573,0.3719912009356694,0.368810032210258],[0.8665364324521267,1.115350442058877,0.8371054209050156],[0.20893883741237124,0.5150705157026374,0.3935422692711562],[0.18132282753611592,0.31458229277975036,0.3446706703003054],[0.23551720575333937,0.6155881566331232,0.44013329248228683],[0.23551720575333937,0.6155881566331232,0.44013329248228683],[0.23551720575333937,0.6155881566331232,0.44013329248228683],[0.32736167289591067,0.6724014043953669,0.5084255488331686],[0.2678404719215288,0.5578805391176197,0.4326268792460192],[0.30357680076416205,0.5035132863852014,0.45189655090002834],[0.1491537117483554,0.5316642292676976,0.32125306918565777],[0.30357680076416205,0.5035132863852014,0.45189655090002834],[0.18132282753611592,0.31458229277975036,0.3446706703003054],[0.0009017191428554196,0.14383268746213246,0.2606382469726114],[0.2184166951542792,0.4733865695502958,0.38617905775540756],[0.16354455704460527,0.4308361198995567,0.35368060415865504],[0.0009017191428554196,0.14383268746213246,0.2606382469726114],[0.32736167289591067,0.6724014043953669,0.5084255488331686],[0.2678404719215288,0.5578805391176197,0.4326268792460192],[0.2678404719215288,0.5578805391176197,0.4326268792460192],[0.8665364324521215,1.1153504420588738,0.8371054209050077]]'
p64
sS'trueType'
p65
S'l1'
p66
sS'f2EstimationHistory'
p67
S'[[0.08,0.6,0.11],[0.8665364324521215,1.1153504420588738,0.8371054209050077],[0.8665364324521215,1.1153504420588738,0.8371054209050077],[0.8665364324521215,1.1153504420588738,0.8371054209050077],[0.8665364324521215,1.1153504420588738,0.8371054209050077],[0.8665364324521215,1.1153504420588738,0.8371054209050077],[0.8665364324521215,1.1153504420588738,0.8371054209050077],[0.8665364324521215,1.1153504420588738,0.8371054209050077],[0.8665364324521215,1.1153504420588738,0.8371054209050077],[0.8665364324521215,1.1153504420588738,0.8371054209050077],[0.8665364324521215,1.1153504420588738,0.8371054209050077],[0.8665364324521215,1.1153504420588738,0.8371054209050077],[0.8665364324521215,1.1153504420588738,0.8371054209050077],[0.8665364324521215,1.1153504420588738,0.8371054209050077],[0.8665364324521215,1.1153504420588738,0.8371054209050077],[0.8665364324521215,1.1153504420588738,0.8371054209050077],[0.8665364324521215,1.1153504420588738,0.8371054209050077],[0.8665364324521215,1.1153504420588738,0.8371054209050077],[0.8665364324521215,1.1153504420588738,0.8371054209050077],[0.8665364324521215,1.1153504420588738,0.8371054209050077],[0.8665364324521215,1.1153504420588738,0.8371054209050077],[0.8665364324521215,1.1153504420588738,0.8371054209050077],[0.8665364324521215,1.1153504420588738,0.8371054209050077],[0.8665364324521215,1.1153504420588738,0.8371054209050077],[0.8665364324521215,1.1153504420588738,0.8371054209050077],[0.8665364324521215,1.1153504420588738,0.8371054209050077],[0.8665364324521215,1.1153504420588738,0.8371054209050077],[0.8665364324521215,1.1153504420588738,0.8371054209050077],[0.8665364324521215,1.1153504420588738,0.8371054209050077],[0.8665364324521215,1.1153504420588738,0.8371054209050077],[0.8665364324521215,1.1153504420588738,0.8371054209050077],[0.8665364324521215,1.1153504420588738,0.8371054209050077],[0.8665364324521215,1.1153504420588738,0.8371054209050077],[0.8665364324521215,1.1153504420588738,0.8371054209050077],[0.8665364324521215,1.1153504420588738,0.8371054209050077],[0.8665364324521215,1.1153504420588738,0.8371054209050077],[0.8665364324521215,1.1153504420588738,0.8371054209050077],[0.8665364324521215,1.1153504420588738,0.8371054209050077],[0.8665364324521215,1.1153504420588738,0.8371054209050077],[0.8665364324521215,1.1153504420588738,0.8371054209050077],[0.8665364324521215,1.1153504420588738,0.8371054209050077],[0.8665364324521215,1.1153504420588738,0.8371054209050077],[0.8665364324521215,1.1153504420588738,0.8371054209050077]]'
p68
sS'f1TypeProbHistory'
p69
(lp70
F0.53
aF0.3147268408551069
aF0.6139944392956441
aF0.5158853761096402
aF0.29195825768125655
aF0.6093590186974343
aF0.644386050369688
aF0.6370621589577883
aF0.6458710827514247
aF0.6463179281098507
aF0.6462657642943571
aF0.6463376780374462
aF0.6463232940084954
aF0.6462542595804907
aF0.6463371026639956
aF0.6463412453757046
aF0.6463414525126843
aF0.6463414113535899
aF0.646341213521698
aF0.6463402639303033
aF0.6463414034403119
aF0.6463414604159177
aF0.6463414632646983
aF0.6463414634071374
aF0.6463414634142591
aF0.6463414634146153
aF0.6463414634146332
aF0.6463414634146338
aF0.646341463414634
aF0.646341463414634
aF0.6463414634146338
aF0.6463414634146336
aF0.6463414634146327
aF0.646341463414628
aF0.6463414634146336
aF0.6463414634146325
aF0.6463414634146338
aF0.6463414634146336
aF0.6463414634146324
aF0.6463414634146261
aF0.646341463414596
aF0.6463414634144515
aF0.6463414634144515
asS'l2EstimationHistory'
p71
S'[[0.88,0.71,0.78],[0.30357680076416205,0.5035132863852014,0.45189655090002834],[0.15332172194810573,0.3719912009356694,0.368810032210258],[0.30357680076416205,0.5035132863852014,0.45189655090002834],[0.1491537117483554,0.5316642292676976,0.32125306918565777],[0.15332172194810573,0.3719912009356694,0.368810032210258],[0.15332172194810573,0.3719912009356694,0.368810032210258],[0.2678404719215288,0.5578805391176197,0.4326268792460192],[0.15332172194810573,0.3719912009356694,0.368810032210258],[0.2490380001565217,0.59453947415242,0.40062589028654705],[0.18132282753611592,0.31458229277975036,0.3446706703003054],[0.18132282753611592,0.31458229277975036,0.3446706703003054],[0.0009017191428554196,0.14383268746213246,0.2606382469726114],[0.1491537117483554,0.5316642292676976,0.32125306918565777],[0.2490380001565217,0.59453947415242,0.40062589028654705],[0.20893883741237124,0.5150705157026374,0.3935422692711562],[0.20893883741237124,0.5150705157026374,0.3935422692711562],[0.20893883741237124,0.5150705157026374,0.3935422692711562],[0.30357680076416205,0.5035132863852014,0.45189655090002834],[0.1491537117483554,0.5316642292676976,0.32125306918565777],[0.2490380001565217,0.59453947415242,0.40062589028654705],[0.2490380001565217,0.59453947415242,0.40062589028654705],[0.15332172194810573,0.3719912009356694,0.368810032210258],[0.2490380001565217,0.59453947415242,0.40062589028654705],[0.20893883741237124,0.5150705157026374,0.3935422692711562],[0.18132282753611592,0.31458229277975036,0.3446706703003054],[0.23551720575333937,0.6155881566331232,0.44013329248228683],[0.23551720575333937,0.6155881566331232,0.44013329248228683],[0.23551720575333937,0.6155881566331232,0.44013329248228683],[0.32736167289591067,0.6724014043953669,0.5084255488331686],[0.2678404719215288,0.5578805391176197,0.4326268792460192],[0.30357680076416205,0.5035132863852014,0.45189655090002834],[0.1491537117483554,0.5316642292676976,0.32125306918565777],[0.30357680076416205,0.5035132863852014,0.45189655090002834],[0.18132282753611592,0.31458229277975036,0.3446706703003054],[0.0009017191428554196,0.14383268746213246,0.2606382469726114],[0.2184166951542792,0.4733865695502958,0.38617905775540756],[0.16354455704460527,0.4308361198995567,0.35368060415865504],[0.0009017191428554196,0.14383268746213246,0.2606382469726114],[0.32736167289591067,0.6724014043953669,0.5084255488331686],[0.2678404719215288,0.5578805391176197,0.4326268792460192],[0.2678404719215288,0.5578805391176197,0.4326268792460192],[0.8665364324521215,1.1153504420588738,0.8371054209050077]]'
p72
sS'f1LastProbability'
p73
F0.6463414634144515
sS'l1LastProbability'
p74
F2.8237969530189385e-13
sS'l2LastProbability'
p75
F1.5320078955180882e-17
sS'f2TypeProbHistory'
p76
(lp77
F0.29
aF0.172209026128266
aF0.3359592215013901
aF0.28227690390904836
aF0.15975074476898937
aF0.3334228592872753
aF0.35258859359850847
aF0.3485811813165256
aF0.35340115848662856
aF0.35364565877708815
aF0.35361711631200676
aF0.35365646534124423
aF0.35364859483483724
aF0.3536108212798912
aF0.3536561505142618
aF0.3536584172810459
aF0.35365853062014796
aF0.3536585080991341
aF0.35365839985149516
aF0.3536578802637509
aF0.3536585037692273
aF0.35365853494455884
aF0.3536585365033256
aF0.35365853658126395
aF0.3536585365851608
aF0.3536585365853557
aF0.3536585365853655
aF0.35365853658536595
aF0.353658536585366
aF0.35365853658536606
aF0.35365853658536595
aF0.35365853658536583
aF0.35365853658536534
aF0.35365853658536267
aF0.35365853658536583
aF0.35365853658536517
aF0.35365853658536595
aF0.35365853658536583
aF0.3536585365853651
aF0.35365853658536167
aF0.35365853658534513
aF0.35365853658526614
aF0.3536585365852662
asS'l2'
p78
(lp79
g24
(g28
S'{\x94\xc5\x9c\xaa\xba\xeb?'
p80
tp81
Rp82
ag24
(g28
S'\x1e\xec\xc2N\x91\xc9\xea?'
p83
tp84
Rp85
ag24
(g28
S'V\x8d\x83\xb4y\xd8\xf1?'
p86
tp87
Rp88
asS'f1EstimationHistory'
p89
S'[[0.28,0.21,0.64],[0.8665364324521215,1.1153504420588738,0.8371054209050077],[0.8665364324521215,1.1153504420588738,0.8371054209050077],[0.8665364324521215,1.1153504420588738,0.8371054209050077],[0.8665364324521215,1.1153504420588738,0.8371054209050077],[0.8665364324521215,1.1153504420588738,0.8371054209050077],[0.8665364324521215,1.1153504420588738,0.8371054209050077],[0.8665364324521215,1.1153504420588738,0.8371054209050077],[0.8665364324521215,1.1153504420588738,0.8371054209050077],[0.8665364324521215,1.1153504420588738,0.8371054209050077],[0.8665364324521215,1.1153504420588738,0.8371054209050077],[0.8665364324521215,1.1153504420588738,0.8371054209050077],[0.8665364324521215,1.1153504420588738,0.8371054209050077],[0.8665364324521215,1.1153504420588738,0.8371054209050077],[0.8665364324521215,1.1153504420588738,0.8371054209050077],[0.8665364324521215,1.1153504420588738,0.8371054209050077],[0.8665364324521215,1.1153504420588738,0.8371054209050077],[0.8665364324521215,1.1153504420588738,0.8371054209050077],[0.8665364324521215,1.1153504420588738,0.8371054209050077],[0.8665364324521215,1.1153504420588738,0.8371054209050077],[0.8665364324521215,1.1153504420588738,0.8371054209050077],[0.8665364324521215,1.1153504420588738,0.8371054209050077],[0.8665364324521215,1.1153504420588738,0.8371054209050077],[0.8665364324521215,1.1153504420588738,0.8371054209050077],[0.8665364324521215,1.1153504420588738,0.8371054209050077],[0.8665364324521215,1.1153504420588738,0.8371054209050077],[0.8665364324521215,1.1153504420588738,0.8371054209050077],[0.8665364324521215,1.1153504420588738,0.8371054209050077],[0.8665364324521215,1.1153504420588738,0.8371054209050077],[0.8665364324521215,1.1153504420588738,0.8371054209050077],[0.8665364324521215,1.1153504420588738,0.8371054209050077],[0.8665364324521215,1.1153504420588738,0.8371054209050077],[0.8665364324521215,1.1153504420588738,0.8371054209050077],[0.8665364324521215,1.1153504420588738,0.8371054209050077],[0.8665364324521215,1.1153504420588738,0.8371054209050077],[0.8665364324521215,1.1153504420588738,0.8371054209050077],[0.8665364324521215,1.1153504420588738,0.8371054209050077],[0.8665364324521215,1.1153504420588738,0.8371054209050077],[0.8665364324521215,1.1153504420588738,0.8371054209050077],[0.8665364324521215,1.1153504420588738,0.8371054209050077],[0.8665364324521215,1.1153504420588738,0.8371054209050077],[0.8665364324521215,1.1153504420588738,0.8371054209050077],[0.8665364324521215,1.1153504420588738,0.8371054209050077]]'
p90
sS'l1'
p91
(lp92
g24
(g28
S'{\x94\xc5\x9c\xaa\xba\xeb?'
p93
tp94
Rp95
ag24
(g28
S'\x1e\xec\xc2N\x91\xc9\xea?'
p96
tp97
Rp98
ag24
(g28
S'V\x8d\x83\xb4y\xd8\xf1?'
p99
tp100
Rp101
asS'trueParameters'
p102
(lp103
F1.0
aF0.78
aF0.72
asS'f2LastProbability'
p104
F0.3536585365852662
sS'l1TypeProbHistory'
p105
(lp106
F0.12
aF0.342042755344418
aF0.033364226135310475
aF0.1345584799875409
aF0.3655273316998361
aF0.03814541467686036
aF0.0020169040212023918
aF0.009571106483790752
aF0.00048517250796438477
aF2.4275408707536653e-05
aF0.00011651255739959072
aF5.826276121409708e-06
aF2.7965503005995418e-05
aF0.00013422007671868064
aF6.7118641169193254e-06
aF3.3559535683791395e-07
aF1.677977321941176e-08
aF8.054290632419504e-08
aF3.8660583202395876e-07
aF1.8557052673464752e-06
aF9.278542694948343e-08
aF4.6392717564303275e-09
aF2.319635888439069e-10
aF1.159817944475132e-11
aF5.799089722439558e-13
aF2.8995448612213765e-14
aF1.4497724306107285e-15
aF7.24886215305365e-17
aF3.6244310765268256e-18
aF1.739726916732876e-17
aF8.350689200317802e-17
aF4.008330816152543e-16
aF1.923998791753218e-15
aF9.235194200415377e-15
aF4.61759710020773e-16
aF2.216446608099706e-15
aF1.1082233040498554e-16
aF5.319471859439304e-16
aF2.553346492530861e-15
aF1.2256063164148012e-14
aF5.882910318790771e-14
aF2.8237969530189385e-13
aF2.8237969530189385e-13
assa.