(lp0
(dp1
S'iterationMax'
p2
I10
sS'itemsCounts'
p3
I10
sS'generatedDataNumber'
p4
I10
sS'typeSelectionMode'
p5
S'AS'
p6
sS'simHeight'
p7
I10
sS'endTime'
p8
F1525533618.135548
sS'reuseTree'
p9
S' False'
p10
sS'beginTime'
p11
F1525533572.068917
sS'timeSteps'
p12
I50
sS'agentsCounts'
p13
I1
sS'simWidth'
p14
I10
sS'estimationMode'
p15
S'ABU'
p16
sS'maxDepth'
p17
I10
sa(dp18
I0
(dp19
S'l2TypeProbHistory'
p20
(lp21
F0.4
aF0.553314121037464
aF0.1897233201581028
aF0.41936658172551877
aF0.5607772346510356
aF0.20877759990334369
aF0.01540340336771168
aF0.06751461498013077
aF0.0037685058608480653
aF0.00018952789639317146
aF9.473836152021322e-06
aF4.7395201142849234e-07
aF2.274719749422207e-06
aF1.0912900642562006e-05
aF5.459903178204258e-07
aF2.7300379678826836e-08
aF1.3650211434826002e-09
aF6.825103602121946e-11
aF3.2760448341553575e-10
aF1.5724902427275466e-09
aF7.86251887973694e-11
aF3.931261131536236e-12
aF1.9656306080598315e-13
aF9.828153050872085e-15
aF4.914076525700366e-16
aF2.4570382628567912e-17
aF1.2285191314285606e-18
aF6.142595657142844e-20
aF3.071297828571422e-21
aF1.4742229577142824e-20
aF7.076270197028552e-20
aF3.3966096945737e-19
aF1.6303726533953636e-18
aF7.825788736297464e-18
aF3.9128943681489004e-19
aF1.8781892967114556e-18
aF9.390946483557375e-20
aF4.5076543121075305e-19
aF2.1636740698115927e-18
aF1.0385635535095154e-17
aF4.9851050568445404e-17
aF2.3928504272827677e-16
aF1.1964252136429505e-17
aF5.982126068215143e-19
aF2.991063034107581e-20
aF1.4955315170537907e-21
aF7.477657585268954e-23
aF3.738828792634477e-24
aF1.8694143963172384e-25
aF8.973189102322744e-25
aF8.973189102322746e-25
asS'f1'
p22
(lp23
cnumpy.core.multiarray
scalar
p24
(cnumpy
dtype
p25
(S'f8'
p26
I0
I1
tp27
Rp28
(I3
S'<'
p29
NNNI-1
I-1
I0
tp30
bS'{\x94\xc5\x9c\xaa\xba\xeb?'
p31
tp32
Rp33
ag24
(g28
S'\x1e\xec\xc2N\x91\xc9\xea?'
p34
tp35
Rp36
ag24
(g28
S'V\x8d\x83\xb4y\xd8\xf1?'
p37
tp38
Rp39
asS'f2'
p40
(lp41
g24
(g28
S'{\x94\xc5\x9c\xaa\xba\xeb?'
p42
tp43
Rp44
ag24
(g28
S'\x1e\xec\xc2N\x91\xc9\xea?'
p45
tp46
Rp47
ag24
(g28
S'V\x8d\x83\xb4y\xd8\xf1?'
p48
tp49
Rp50
asS'last_estimated_value'
p51
(iparameter_estimation
Parameter
p52
(dp53
S'min_max'
p54
(lp55
(I0
I1
tp56
a(F0.1
I1
tp57
a(F0.1
I1
tp58
asS'radius'
p59
g47
sS'angle'
p60
g50
sS'iteration'
p61
I0
sS'level'
p62
g44
sbsS'l1EstimationHistory'
p63
S'[[0.76,0.95,0.47],[0.30357680076416205,0.5035132863852014,0.45189655090002834],[0.15332172194810573,0.3719912009356694,0.368810032210258],[0.30357680076416205,0.5035132863852014,0.45189655090002834],[0.1491537117483554,0.5316642292676976,0.32125306918565777],[0.15332172194810573,0.3719912009356694,0.368810032210258],[0.15332172194810573,0.3719912009356694,0.368810032210258],[0.2678404719215288,0.5578805391176197,0.4326268792460192],[0.15332172194810573,0.3719912009356694,0.368810032210258],[0.8665364324521267,1.115350442058877,0.8371054209050156],[0.0009017191428554196,0.14383268746213246,0.2606382469726114],[0.18132282753611592,0.31458229277975036,0.3446706703003054],[0.0009017191428554196,0.14383268746213246,0.2606382469726114],[0.1491537117483554,0.5316642292676976,0.32125306918565777],[0.8665364324521267,1.115350442058877,0.8371054209050156],[0.20893883741237124,0.5150705157026374,0.3935422692711562],[0.20893883741237124,0.5150705157026374,0.3935422692711562],[0.2678404719215288,0.5578805391176197,0.4326268792460192],[0.30357680076416205,0.5035132863852014,0.45189655090002834],[0.1491537117483554,0.5316642292676976,0.32125306918565777],[0.2490380001565217,0.59453947415242,0.40062589028654705],[0.2490380001565217,0.59453947415242,0.40062589028654705],[0.15332172194810573,0.3719912009356694,0.368810032210258],[0.8665364324521267,1.115350442058877,0.8371054209050156],[0.20893883741237124,0.5150705157026374,0.3935422692711562],[0.18132282753611592,0.31458229277975036,0.3446706703003054],[0.23551720575333937,0.6155881566331232,0.44013329248228683],[0.23551720575333937,0.6155881566331232,0.44013329248228683],[0.23551720575333937,0.6155881566331232,0.44013329248228683],[0.32736167289591067,0.6724014043953669,0.5084255488331686],[0.2678404719215288,0.5578805391176197,0.4326268792460192],[0.30357680076416205,0.5035132863852014,0.45189655090002834],[0.1491537117483554,0.5316642292676976,0.32125306918565777],[0.30357680076416205,0.5035132863852014,0.45189655090002834],[0.18132282753611592,0.31458229277975036,0.3446706703003054],[0.0009017191428554196,0.14383268746213246,0.2606382469726114],[0.2184166951542792,0.4733865695502958,0.38617905775540756],[0.16354455704460527,0.4308361198995567,0.35368060415865504],[0.0009017191428554196,0.14383268746213246,0.2606382469726114],[0.32736167289591067,0.6724014043953669,0.5084255488331686],[0.2678404719215288,0.5578805391176197,0.4326268792460192],[0.2678404719215288,0.5578805391176197,0.4326268792460192],[0.20893883741237124,0.5150705157026374,0.3935422692711562],[0.20893883741237124,0.5150705157026374,0.3935422692711562],[0.26312244352884384,0.5651013084402158,0.4415907555977082],[0.15332172194810573,0.3719912009356694,0.368810032210258],[0.2490380001565217,0.59453947415242,0.40062589028654705],[0.15332172194810573,0.3719912009356694,0.368810032210258],[0.8665364324521267,1.115350442058877,0.8371054209050156],[0.0009017191428554196,0.14383268746213246,0.2606382469726114],[0.8665364324521215,1.1153504420588738,0.8371054209050077]]'
p64
sS'trueType'
p65
S'l1'
p66
sS'f2EstimationHistory'
p67
S'[[0.87,0.5,0.84],[0.8665364324521215,1.1153504420588738,0.8371054209050077],[0.8665364324521215,1.1153504420588738,0.8371054209050077],[0.8665364324521215,1.1153504420588738,0.8371054209050077],[0.8665364324521215,1.1153504420588738,0.8371054209050077],[0.8665364324521215,1.1153504420588738,0.8371054209050077],[0.8665364324521215,1.1153504420588738,0.8371054209050077],[0.8665364324521215,1.1153504420588738,0.8371054209050077],[0.8665364324521215,1.1153504420588738,0.8371054209050077],[0.8665364324521215,1.1153504420588738,0.8371054209050077],[0.8665364324521215,1.1153504420588738,0.8371054209050077],[0.8665364324521215,1.1153504420588738,0.8371054209050077],[0.8665364324521215,1.1153504420588738,0.8371054209050077],[0.8665364324521215,1.1153504420588738,0.8371054209050077],[0.8665364324521215,1.1153504420588738,0.8371054209050077],[0.8665364324521215,1.1153504420588738,0.8371054209050077],[0.8665364324521215,1.1153504420588738,0.8371054209050077],[0.8665364324521215,1.1153504420588738,0.8371054209050077],[0.8665364324521215,1.1153504420588738,0.8371054209050077],[0.8665364324521215,1.1153504420588738,0.8371054209050077],[0.8665364324521215,1.1153504420588738,0.8371054209050077],[0.8665364324521215,1.1153504420588738,0.8371054209050077],[0.8665364324521215,1.1153504420588738,0.8371054209050077],[0.8665364324521215,1.1153504420588738,0.8371054209050077],[0.8665364324521215,1.1153504420588738,0.8371054209050077],[0.8665364324521215,1.1153504420588738,0.8371054209050077],[0.8665364324521215,1.1153504420588738,0.8371054209050077],[0.8665364324521215,1.1153504420588738,0.8371054209050077],[0.8665364324521215,1.1153504420588738,0.8371054209050077],[0.8665364324521215,1.1153504420588738,0.8371054209050077],[0.8665364324521215,1.1153504420588738,0.8371054209050077],[0.8665364324521215,1.1153504420588738,0.8371054209050077],[0.8665364324521215,1.1153504420588738,0.8371054209050077],[0.8665364324521215,1.1153504420588738,0.8371054209050077],[0.8665364324521215,1.1153504420588738,0.8371054209050077],[0.8665364324521215,1.1153504420588738,0.8371054209050077],[0.8665364324521215,1.1153504420588738,0.8371054209050077],[0.8665364324521215,1.1153504420588738,0.8371054209050077],[0.8665364324521215,1.1153504420588738,0.8371054209050077],[0.8665364324521215,1.1153504420588738,0.8371054209050077],[0.8665364324521215,1.1153504420588738,0.8371054209050077],[0.8665364324521215,1.1153504420588738,0.8371054209050077],[0.8665364324521215,1.1153504420588738,0.8371054209050077],[0.8665364324521215,1.1153504420588738,0.8371054209050077],[0.8665364324521215,1.1153504420588738,0.8371054209050077],[0.8665364324521215,1.1153504420588738,0.8371054209050077],[0.8665364324521215,1.1153504420588738,0.8371054209050077],[0.8665364324521215,1.1153504420588738,0.8371054209050077],[0.8665364324521215,1.1153504420588738,0.8371054209050077],[0.8665364324521215,1.1153504420588738,0.8371054209050077],[0.8665364324521215,1.1153504420588738,0.8371054209050077]]'
p68
sS'f1TypeProbHistory'
p69
(lp70
F0.15
aF0.04322766570605187
aF0.2964426877470356
aF0.1365125591554423
aF0.038030140153743196
aF0.2831727429244571
aF0.41784405836891503
aF0.38155232171026604
aF0.42594693341833795
aF0.4284394359292977
aF0.42832375542631146
aF0.4285590381117012
aF0.4285119608979794
aF0.42828613416891587
aF0.42855715482454837
aF0.4285707148615027
aF0.42857139288587587
aF0.42857126005962065
aF0.428570619715959
aF0.42856754609301934
aF0.42857123444583745
aF0.42857141886514477
aF0.42857142808611437
aF0.42857142854716285
aF0.42857142857021535
aF0.428571428571368
aF0.42857142857142555
aF0.4285714285714285
aF0.4285714285714286
aF0.42857142857142866
aF0.4285714285714285
aF0.4285714285714279
aF0.42857142857142466
aF0.4285714285714093
aF0.4285714285714277
aF0.428571428571424
aF0.42857142857142844
aF0.4285714285714276
aF0.4285714285714233
aF0.42857142857140307
aF0.42857142857130565
aF0.42857142857083796
aF0.42857142857139924
aF0.4285714285714272
aF0.4285714285714286
aF0.4285714285714287
aF0.4285714285714287
aF0.4285714285714287
aF0.4285714285714287
aF0.4285714285714287
aF0.4285714285714287
asS'l2EstimationHistory'
p71
S'[[0.24,0.82,0.99],[0.30357680076416205,0.5035132863852014,0.45189655090002834],[0.15332172194810573,0.3719912009356694,0.368810032210258],[0.30357680076416205,0.5035132863852014,0.45189655090002834],[0.1491537117483554,0.5316642292676976,0.32125306918565777],[0.15332172194810573,0.3719912009356694,0.368810032210258],[0.15332172194810573,0.3719912009356694,0.368810032210258],[0.2678404719215288,0.5578805391176197,0.4326268792460192],[0.15332172194810573,0.3719912009356694,0.368810032210258],[0.2490380001565217,0.59453947415242,0.40062589028654705],[0.18132282753611592,0.31458229277975036,0.3446706703003054],[0.18132282753611592,0.31458229277975036,0.3446706703003054],[0.0009017191428554196,0.14383268746213246,0.2606382469726114],[0.1491537117483554,0.5316642292676976,0.32125306918565777],[0.2490380001565217,0.59453947415242,0.40062589028654705],[0.20893883741237124,0.5150705157026374,0.3935422692711562],[0.20893883741237124,0.5150705157026374,0.3935422692711562],[0.20893883741237124,0.5150705157026374,0.3935422692711562],[0.30357680076416205,0.5035132863852014,0.45189655090002834],[0.1491537117483554,0.5316642292676976,0.32125306918565777],[0.2490380001565217,0.59453947415242,0.40062589028654705],[0.2490380001565217,0.59453947415242,0.40062589028654705],[0.15332172194810573,0.3719912009356694,0.368810032210258],[0.2490380001565217,0.59453947415242,0.40062589028654705],[0.20893883741237124,0.5150705157026374,0.3935422692711562],[0.18132282753611592,0.31458229277975036,0.3446706703003054],[0.23551720575333937,0.6155881566331232,0.44013329248228683],[0.23551720575333937,0.6155881566331232,0.44013329248228683],[0.23551720575333937,0.6155881566331232,0.44013329248228683],[0.32736167289591067,0.6724014043953669,0.5084255488331686],[0.2678404719215288,0.5578805391176197,0.4326268792460192],[0.30357680076416205,0.5035132863852014,0.45189655090002834],[0.1491537117483554,0.5316642292676976,0.32125306918565777],[0.30357680076416205,0.5035132863852014,0.45189655090002834],[0.18132282753611592,0.31458229277975036,0.3446706703003054],[0.0009017191428554196,0.14383268746213246,0.2606382469726114],[0.2184166951542792,0.4733865695502958,0.38617905775540756],[0.16354455704460527,0.4308361198995567,0.35368060415865504],[0.0009017191428554196,0.14383268746213246,0.2606382469726114],[0.32736167289591067,0.6724014043953669,0.5084255488331686],[0.2678404719215288,0.5578805391176197,0.4326268792460192],[0.2678404719215288,0.5578805391176197,0.4326268792460192],[0.20893883741237124,0.5150705157026374,0.3935422692711562],[0.20893883741237124,0.5150705157026374,0.3935422692711562],[0.26312244352884384,0.5651013084402158,0.4415907555977082],[0.15332172194810573,0.3719912009356694,0.368810032210258],[0.2490380001565217,0.59453947415242,0.40062589028654705],[0.15332172194810573,0.3719912009356694,0.368810032210258],[0.2490380001565217,0.59453947415242,0.40062589028654705],[0.0009017191428554196,0.14383268746213246,0.2606382469726114],[0.8665364324521215,1.1153504420588738,0.8371054209050077]]'
p72
sS'f1LastProbability'
p73
F0.4285714285714287
sS'l1LastProbability'
p74
F5.168556922937906e-21
sS'l2LastProbability'
p75
F8.973189102322746e-25
sS'f2TypeProbHistory'
p76
(lp77
F0.2
aF0.057636887608069176
aF0.39525691699604754
aF0.18201674554058977
aF0.05070685353832426
aF0.3775636572326095
aF0.5571254111585534
aF0.5087364289470214
aF0.5679292445577839
aF0.5712525812390635
aF0.5710983405684152
aF0.5714120508156016
aF0.5713492811973059
aF0.5710481788918879
aF0.5714095397660645
aF0.5714276198153369
aF0.5714285238478344
aF0.5714283467461608
aF0.571427492954612
aF0.5714233947906925
aF0.5714283125944499
aF0.5714285584868597
aF0.5714285707814858
aF0.571428571396217
aF0.5714285714269537
aF0.5714285714284906
aF0.5714285714285673
aF0.5714285714285712
aF0.5714285714285713
aF0.5714285714285714
aF0.5714285714285711
aF0.5714285714285703
aF0.5714285714285661
aF0.5714285714285455
aF0.5714285714285701
aF0.5714285714285651
aF0.571428571428571
aF0.5714285714285698
aF0.5714285714285641
aF0.5714285714285371
aF0.5714285714284072
aF0.5714285714277836
aF0.571428571428532
aF0.5714285714285693
aF0.5714285714285712
aF0.5714285714285713
aF0.5714285714285714
aF0.5714285714285714
aF0.5714285714285714
aF0.5714285714285714
aF0.5714285714285714
asS'l2'
p78
(lp79
g24
(g28
S'{\x94\xc5\x9c\xaa\xba\xeb?'
p80
tp81
Rp82
ag24
(g28
S'\x1e\xec\xc2N\x91\xc9\xea?'
p83
tp84
Rp85
ag24
(g28
S'V\x8d\x83\xb4y\xd8\xf1?'
p86
tp87
Rp88
asS'f1EstimationHistory'
p89
S'[[0.21,0.29,0.26],[0.8665364324521215,1.1153504420588738,0.8371054209050077],[0.8665364324521215,1.1153504420588738,0.8371054209050077],[0.8665364324521215,1.1153504420588738,0.8371054209050077],[0.8665364324521215,1.1153504420588738,0.8371054209050077],[0.8665364324521215,1.1153504420588738,0.8371054209050077],[0.8665364324521215,1.1153504420588738,0.8371054209050077],[0.8665364324521215,1.1153504420588738,0.8371054209050077],[0.8665364324521215,1.1153504420588738,0.8371054209050077],[0.8665364324521215,1.1153504420588738,0.8371054209050077],[0.8665364324521215,1.1153504420588738,0.8371054209050077],[0.8665364324521215,1.1153504420588738,0.8371054209050077],[0.8665364324521215,1.1153504420588738,0.8371054209050077],[0.8665364324521215,1.1153504420588738,0.8371054209050077],[0.8665364324521215,1.1153504420588738,0.8371054209050077],[0.8665364324521215,1.1153504420588738,0.8371054209050077],[0.8665364324521215,1.1153504420588738,0.8371054209050077],[0.8665364324521215,1.1153504420588738,0.8371054209050077],[0.8665364324521215,1.1153504420588738,0.8371054209050077],[0.8665364324521215,1.1153504420588738,0.8371054209050077],[0.8665364324521215,1.1153504420588738,0.8371054209050077],[0.8665364324521215,1.1153504420588738,0.8371054209050077],[0.8665364324521215,1.1153504420588738,0.8371054209050077],[0.8665364324521215,1.1153504420588738,0.8371054209050077],[0.8665364324521215,1.1153504420588738,0.8371054209050077],[0.8665364324521215,1.1153504420588738,0.8371054209050077],[0.8665364324521215,1.1153504420588738,0.8371054209050077],[0.8665364324521215,1.1153504420588738,0.8371054209050077],[0.8665364324521215,1.1153504420588738,0.8371054209050077],[0.8665364324521215,1.1153504420588738,0.8371054209050077],[0.8665364324521215,1.1153504420588738,0.8371054209050077],[0.8665364324521215,1.1153504420588738,0.8371054209050077],[0.8665364324521215,1.1153504420588738,0.8371054209050077],[0.8665364324521215,1.1153504420588738,0.8371054209050077],[0.8665364324521215,1.1153504420588738,0.8371054209050077],[0.8665364324521215,1.1153504420588738,0.8371054209050077],[0.8665364324521215,1.1153504420588738,0.8371054209050077],[0.8665364324521215,1.1153504420588738,0.8371054209050077],[0.8665364324521215,1.1153504420588738,0.8371054209050077],[0.8665364324521215,1.1153504420588738,0.8371054209050077],[0.8665364324521215,1.1153504420588738,0.8371054209050077],[0.8665364324521215,1.1153504420588738,0.8371054209050077],[0.8665364324521215,1.1153504420588738,0.8371054209050077],[0.8665364324521215,1.1153504420588738,0.8371054209050077],[0.8665364324521215,1.1153504420588738,0.8371054209050077],[0.8665364324521215,1.1153504420588738,0.8371054209050077],[0.8665364324521215,1.1153504420588738,0.8371054209050077],[0.8665364324521215,1.1153504420588738,0.8371054209050077],[0.8665364324521215,1.1153504420588738,0.8371054209050077],[0.8665364324521215,1.1153504420588738,0.8371054209050077],[0.8665364324521215,1.1153504420588738,0.8371054209050077]]'
p90
sS'l1'
p91
(lp92
g24
(g28
S'{\x94\xc5\x9c\xaa\xba\xeb?'
p93
tp94
Rp95
ag24
(g28
S'\x1e\xec\xc2N\x91\xc9\xea?'
p96
tp97
Rp98
ag24
(g28
S'V\x8d\x83\xb4y\xd8\xf1?'
p99
tp100
Rp101
asS'trueParameters'
p102
(lp103
F1.0
aF0.78
aF0.72
asS'f2LastProbability'
p104
F0.5714285714285714
sS'l1TypeProbHistory'
p105
(lp106
F0.25
aF0.34582132564841495
aF0.11857707509881422
aF0.26210411357844915
aF0.3504857716568971
aF0.13048599993958976
aF0.009627127104819798
aF0.04219663436258172
aF0.00235531616303004
aF0.00011845493524573212
aF0.0005684301691212791
aF2.843712068570953e-05
aF0.00013648318496533234
aF0.0006547740385537201
aF3.275941906922554e-05
aF1.6380227807296097e-06
aF8.1901268608956e-08
aF3.9312596748222407e-07
aF1.887001824473486e-06
aF9.057543798110669e-06
aF4.5288108747284777e-07
aF2.2644064117648722e-08
aF1.132203230242463e-09
aF5.6610161573023206e-11
aF2.830508078803411e-12
aF1.415254039405512e-13
aF7.07627019702851e-15
aF3.538135098514279e-16
aF1.7690675492571398e-17
aF8.491524236434271e-17
aF4.0759316334884476e-16
aF1.956447184074452e-15
aF9.3909464835573e-15
aF4.5076543121073425e-14
aF2.2538271560537678e-15
aF1.081837034905799e-14
aF5.409185174529051e-16
aF2.596408883773939e-15
aF1.2462762642114781e-14
aF5.982126068214812e-14
aF2.8714205127424573e-13
aF1.3782818461148752e-12
aF6.8914092305834e-14
aF3.445704615291925e-15
aF1.722852307645968e-16
aF8.614261538229842e-18
aF4.307130769114921e-19
aF2.1535653845574605e-20
aF1.0767826922787303e-21
aF5.1685569229379055e-21
aF5.168556922937906e-21
assa.