(lp0
(dp1
S'iterationMax'
p2
I10
sS'itemsCounts'
p3
I10
sS'generatedDataNumber'
p4
I10
sS'typeSelectionMode'
p5
S'AS'
p6
sS'simHeight'
p7
I10
sS'endTime'
p8
F1525534047.580776
sS'reuseTree'
p9
S' False'
p10
sS'beginTime'
p11
F1525534017.929556
sS'timeSteps'
p12
I42
sS'agentsCounts'
p13
I1
sS'simWidth'
p14
I10
sS'estimationMode'
p15
S'ABU'
p16
sS'maxDepth'
p17
I10
sa(dp18
I0
(dp19
S'l2TypeProbHistory'
p20
(lp21
F0.0
aF0.0
aF0.0
aF0.0
aF0.0
aF0.0
aF0.0
aF0.0
aF0.0
aF0.0
aF0.0
aF0.0
aF0.0
aF0.0
aF0.0
aF0.0
aF0.0
aF0.0
aF0.0
aF0.0
aF0.0
aF0.0
aF0.0
aF0.0
aF0.0
aF0.0
aF0.0
aF0.0
aF0.0
aF0.0
aF0.0
aF0.0
aF0.0
aF0.0
aF0.0
aF0.0
aF0.0
aF0.0
aF0.0
aF0.0
aF0.0
aF0.0
aF0.0
asS'f1'
p22
(lp23
cnumpy.core.multiarray
scalar
p24
(cnumpy
dtype
p25
(S'f8'
p26
I0
I1
tp27
Rp28
(I3
S'<'
p29
NNNI-1
I-1
I0
tp30
bS'{\x94\xc5\x9c\xaa\xba\xeb?'
p31
tp32
Rp33
ag24
(g28
S'\x1e\xec\xc2N\x91\xc9\xea?'
p34
tp35
Rp36
ag24
(g28
S'V\x8d\x83\xb4y\xd8\xf1?'
p37
tp38
Rp39
asS'f2'
p40
(lp41
g24
(g28
S'{\x94\xc5\x9c\xaa\xba\xeb?'
p42
tp43
Rp44
ag24
(g28
S'\x1e\xec\xc2N\x91\xc9\xea?'
p45
tp46
Rp47
ag24
(g28
S'V\x8d\x83\xb4y\xd8\xf1?'
p48
tp49
Rp50
asS'last_estimated_value'
p51
(iparameter_estimation
Parameter
p52
(dp53
S'min_max'
p54
(lp55
(I0
I1
tp56
a(F0.1
I1
tp57
a(F0.1
I1
tp58
asS'radius'
p59
g47
sS'angle'
p60
g50
sS'iteration'
p61
I0
sS'level'
p62
g44
sbsS'l1EstimationHistory'
p63
S'[[0.38,0.2,0.59],[0.30357680076416205,0.5035132863852014,0.45189655090002834],[0.15332172194810573,0.3719912009356694,0.368810032210258],[0.30357680076416205,0.5035132863852014,0.45189655090002834],[0.1491537117483554,0.5316642292676976,0.32125306918565777],[0.15332172194810573,0.3719912009356694,0.368810032210258],[0.15332172194810573,0.3719912009356694,0.368810032210258],[0.2678404719215288,0.5578805391176197,0.4326268792460192],[0.15332172194810573,0.3719912009356694,0.368810032210258],[0.8665364324521267,1.115350442058877,0.8371054209050156],[0.0009017191428554196,0.14383268746213246,0.2606382469726114],[0.18132282753611592,0.31458229277975036,0.3446706703003054],[0.0009017191428554196,0.14383268746213246,0.2606382469726114],[0.1491537117483554,0.5316642292676976,0.32125306918565777],[0.8665364324521267,1.115350442058877,0.8371054209050156],[0.20893883741237124,0.5150705157026374,0.3935422692711562],[0.20893883741237124,0.5150705157026374,0.3935422692711562],[0.1491537117483554,0.5316642292676976,0.32125306918565777],[0.15332172194810573,0.3719912009356694,0.368810032210258],[0.1491537117483554,0.5316642292676976,0.32125306918565777],[0.2490380001565217,0.59453947415242,0.40062589028654705],[0.2490380001565217,0.59453947415242,0.40062589028654705],[0.15332172194810573,0.3719912009356694,0.368810032210258],[0.8665364324521267,1.115350442058877,0.8371054209050156],[0.20893883741237124,0.5150705157026374,0.3935422692711562],[0.18132282753611592,0.31458229277975036,0.3446706703003054],[0.0009017191428554196,0.14383268746213246,0.2606382469726114],[0.2490380001565217,0.59453947415242,0.40062589028654705],[0.30357680076416205,0.5035132863852014,0.45189655090002834],[0.18132282753611592,0.31458229277975036,0.3446706703003054],[0.0009017191428554196,0.14383268746213246,0.2606382469726114],[0.23551720575333937,0.6155881566331232,0.44013329248228683],[0.32736167289591067,0.6724014043953669,0.5084255488331686],[0.1491537117483554,0.5316642292676976,0.32125306918565777],[0.30357680076416205,0.5035132863852014,0.45189655090002834],[0.18132282753611592,0.31458229277975036,0.3446706703003054],[0.0009017191428554196,0.14383268746213246,0.2606382469726114],[0.2184166951542792,0.4733865695502958,0.38617905775540756],[0.19819177730555593,0.520652717851104,0.40207710729252444],[0.30357680076416205,0.5035132863852014,0.45189655090002834],[0.18132282753611592,0.31458229277975036,0.3446706703003054],[0.0009017191428554196,0.14383268746213246,0.2606382469726114],[0.8665364324521215,1.1153504420588738,0.8371054209050077]]'
p64
sS'trueType'
p65
S'l1'
p66
sS'f2EstimationHistory'
p67
S'[[0.71,0.42,0.2],[0.8665364324521215,1.1153504420588738,0.8371054209050077],[0.8665364324521215,1.1153504420588738,0.8371054209050077],[0.8665364324521215,1.1153504420588738,0.8371054209050077],[0.8665364324521215,1.1153504420588738,0.8371054209050077],[0.8665364324521215,1.1153504420588738,0.8371054209050077],[0.8665364324521215,1.1153504420588738,0.8371054209050077],[0.8665364324521215,1.1153504420588738,0.8371054209050077],[0.8665364324521215,1.1153504420588738,0.8371054209050077],[0.8665364324521215,1.1153504420588738,0.8371054209050077],[0.8665364324521215,1.1153504420588738,0.8371054209050077],[0.8665364324521215,1.1153504420588738,0.8371054209050077],[0.8665364324521215,1.1153504420588738,0.8371054209050077],[0.8665364324521215,1.1153504420588738,0.8371054209050077],[0.8665364324521215,1.1153504420588738,0.8371054209050077],[0.8665364324521215,1.1153504420588738,0.8371054209050077],[0.8665364324521215,1.1153504420588738,0.8371054209050077],[0.8665364324521215,1.1153504420588738,0.8371054209050077],[0.8665364324521215,1.1153504420588738,0.8371054209050077],[0.8665364324521215,1.1153504420588738,0.8371054209050077],[0.8665364324521215,1.1153504420588738,0.8371054209050077],[0.8665364324521215,1.1153504420588738,0.8371054209050077],[0.8665364324521215,1.1153504420588738,0.8371054209050077],[0.8665364324521215,1.1153504420588738,0.8371054209050077],[0.8665364324521215,1.1153504420588738,0.8371054209050077],[0.8665364324521215,1.1153504420588738,0.8371054209050077],[0.8665364324521215,1.1153504420588738,0.8371054209050077],[0.8665364324521215,1.1153504420588738,0.8371054209050077],[0.8665364324521215,1.1153504420588738,0.8371054209050077],[0.8665364324521215,1.1153504420588738,0.8371054209050077],[0.8665364324521215,1.1153504420588738,0.8371054209050077],[0.8665364324521215,1.1153504420588738,0.8371054209050077],[0.8665364324521215,1.1153504420588738,0.8371054209050077],[0.8665364324521215,1.1153504420588738,0.8371054209050077],[0.8665364324521215,1.1153504420588738,0.8371054209050077],[0.8665364324521215,1.1153504420588738,0.8371054209050077],[0.8665364324521215,1.1153504420588738,0.8371054209050077],[0.8665364324521215,1.1153504420588738,0.8371054209050077],[0.8665364324521215,1.1153504420588738,0.8371054209050077],[0.8665364324521215,1.1153504420588738,0.8371054209050077],[0.8665364324521215,1.1153504420588738,0.8371054209050077],[0.8665364324521215,1.1153504420588738,0.8371054209050077],[0.8665364324521215,1.1153504420588738,0.8371054209050077]]'
p68
sS'f1TypeProbHistory'
p69
(lp70
F0.43
aF0.23420479302832245
aF0.516330451488953
aF0.41608608143675496
aF0.2153756150726868
aF0.5114021266716904
aF0.5491409086376647
aF0.5411540452830456
aF0.5507666557083059
aF0.5512562585953722
aF0.5511582683933006
aF0.5512758608171282
aF0.5512523383183031
aF0.5511394582608437
aF0.5512749198786321
aF0.5512816947074982
aF0.5512820334533126
aF0.5512819657041165
aF0.5512820470031539
aF0.5512820307433445
aF0.5512820502551158
aF0.5512820512307044
aF0.5512820512794838
aF0.5512820512819229
aF0.5512820512820448
aF0.5512820512820509
aF0.5512820512820497
aF0.5512820512820511
aF0.5512820512820509
aF0.5512820512820512
aF0.5512820512820512
aF0.5512820512820513
aF0.5512820512820512
aF0.5512820512820511
aF0.5512820512820509
aF0.5512820512820512
aF0.5512820512820512
aF0.5512820512820513
aF0.5512820512820513
aF0.5512820512820511
aF0.5512820512820512
aF0.5512820512820513
aF0.5512820512820512
asS'l2EstimationHistory'
p71
S'[[0.34,0.81,0.17],[0.30357680076416205,0.5035132863852014,0.45189655090002834],[0.15332172194810573,0.3719912009356694,0.368810032210258],[0.30357680076416205,0.5035132863852014,0.45189655090002834],[0.1491537117483554,0.5316642292676976,0.32125306918565777],[0.15332172194810573,0.3719912009356694,0.368810032210258],[0.15332172194810573,0.3719912009356694,0.368810032210258],[0.2678404719215288,0.5578805391176197,0.4326268792460192],[0.15332172194810573,0.3719912009356694,0.368810032210258],[0.2490380001565217,0.59453947415242,0.40062589028654705],[0.18132282753611592,0.31458229277975036,0.3446706703003054],[0.18132282753611592,0.31458229277975036,0.3446706703003054],[0.0009017191428554196,0.14383268746213246,0.2606382469726114],[0.1491537117483554,0.5316642292676976,0.32125306918565777],[0.2490380001565217,0.59453947415242,0.40062589028654705],[0.20893883741237124,0.5150705157026374,0.3935422692711562],[0.20893883741237124,0.5150705157026374,0.3935422692711562],[0.1491537117483554,0.5316642292676976,0.32125306918565777],[0.30357680076416205,0.5035132863852014,0.45189655090002834],[0.1491537117483554,0.5316642292676976,0.32125306918565777],[0.2490380001565217,0.59453947415242,0.40062589028654705],[0.2490380001565217,0.59453947415242,0.40062589028654705],[0.15332172194810573,0.3719912009356694,0.368810032210258],[0.2490380001565217,0.59453947415242,0.40062589028654705],[0.20893883741237124,0.5150705157026374,0.3935422692711562],[0.18132282753611592,0.31458229277975036,0.3446706703003054],[0.0009017191428554196,0.14383268746213246,0.2606382469726114],[0.2490380001565217,0.59453947415242,0.40062589028654705],[0.30357680076416205,0.5035132863852014,0.45189655090002834],[0.18132282753611592,0.31458229277975036,0.3446706703003054],[0.0009017191428554196,0.14383268746213246,0.2606382469726114],[0.23551720575333937,0.6155881566331232,0.44013329248228683],[0.32736167289591067,0.6724014043953669,0.5084255488331686],[0.1491537117483554,0.5316642292676976,0.32125306918565777],[0.30357680076416205,0.5035132863852014,0.45189655090002834],[0.18132282753611592,0.31458229277975036,0.3446706703003054],[0.0009017191428554196,0.14383268746213246,0.2606382469726114],[0.2184166951542792,0.4733865695502958,0.38617905775540756],[0.19819177730555593,0.520652717851104,0.40207710729252444],[0.30357680076416205,0.5035132863852014,0.45189655090002834],[0.18132282753611592,0.31458229277975036,0.3446706703003054],[0.0009017191428554196,0.14383268746213246,0.2606382469726114],[0.8665364324521215,1.1153504420588738,0.8371054209050077]]'
p72
sS'f1LastProbability'
p73
F0.5512820512820512
sS'l1LastProbability'
p74
F5.905432144263689e-17
sS'l2LastProbability'
p75
F0.0
sS'f2TypeProbHistory'
p76
(lp77
F0.35
aF0.19063180827886708
aF0.420268972142171
aF0.33867471744852146
aF0.17530573319869855
aF0.41625754496532935
aF0.4469751581934481
aF0.4404742229048046
aF0.44829844069280717
aF0.44869695467065185
aF0.44861719520384935
aF0.44871290996742996
aF0.4486937637474561
aF0.4486018846309193
aF0.44871214408725874
aF0.4487176584828475
aF0.44871793420618483
aF0.4487178790614903
aF0.44871794523512537
aF0.44871793200039684
aF0.4487179478820712
aF0.448717948676155
aF0.4487179487158591
aF0.4487179487178444
aF0.44871794871794357
aF0.4487179487179485
aF0.44871794871794746
aF0.4487179487179487
aF0.44871794871794846
aF0.44871794871794873
aF0.44871794871794873
aF0.4487179487179488
aF0.44871794871794873
aF0.4487179487179486
aF0.4487179487179484
aF0.4487179487179487
aF0.4487179487179486
aF0.4487179487179487
aF0.44871794871794873
aF0.4487179487179486
aF0.44871794871794873
aF0.4487179487179488
aF0.44871794871794873
asS'l2'
p78
(lp79
g24
(g28
S'{\x94\xc5\x9c\xaa\xba\xeb?'
p80
tp81
Rp82
ag24
(g28
S'\x1e\xec\xc2N\x91\xc9\xea?'
p83
tp84
Rp85
ag24
(g28
S'V\x8d\x83\xb4y\xd8\xf1?'
p86
tp87
Rp88
asS'f1EstimationHistory'
p89
S'[[0.56,0.29,0.11],[0.8665364324521215,1.1153504420588738,0.8371054209050077],[0.8665364324521215,1.1153504420588738,0.8371054209050077],[0.8665364324521215,1.1153504420588738,0.8371054209050077],[0.8665364324521215,1.1153504420588738,0.8371054209050077],[0.8665364324521215,1.1153504420588738,0.8371054209050077],[0.8665364324521215,1.1153504420588738,0.8371054209050077],[0.8665364324521215,1.1153504420588738,0.8371054209050077],[0.8665364324521215,1.1153504420588738,0.8371054209050077],[0.8665364324521215,1.1153504420588738,0.8371054209050077],[0.8665364324521215,1.1153504420588738,0.8371054209050077],[0.8665364324521215,1.1153504420588738,0.8371054209050077],[0.8665364324521215,1.1153504420588738,0.8371054209050077],[0.8665364324521215,1.1153504420588738,0.8371054209050077],[0.8665364324521215,1.1153504420588738,0.8371054209050077],[0.8665364324521215,1.1153504420588738,0.8371054209050077],[0.8665364324521215,1.1153504420588738,0.8371054209050077],[0.8665364324521215,1.1153504420588738,0.8371054209050077],[0.8665364324521215,1.1153504420588738,0.8371054209050077],[0.8665364324521215,1.1153504420588738,0.8371054209050077],[0.8665364324521215,1.1153504420588738,0.8371054209050077],[0.8665364324521215,1.1153504420588738,0.8371054209050077],[0.8665364324521215,1.1153504420588738,0.8371054209050077],[0.8665364324521215,1.1153504420588738,0.8371054209050077],[0.8665364324521215,1.1153504420588738,0.8371054209050077],[0.8665364324521215,1.1153504420588738,0.8371054209050077],[0.8665364324521215,1.1153504420588738,0.8371054209050077],[0.8665364324521215,1.1153504420588738,0.8371054209050077],[0.8665364324521215,1.1153504420588738,0.8371054209050077],[0.8665364324521215,1.1153504420588738,0.8371054209050077],[0.8665364324521215,1.1153504420588738,0.8371054209050077],[0.8665364324521215,1.1153504420588738,0.8371054209050077],[0.8665364324521215,1.1153504420588738,0.8371054209050077],[0.8665364324521215,1.1153504420588738,0.8371054209050077],[0.8665364324521215,1.1153504420588738,0.8371054209050077],[0.8665364324521215,1.1153504420588738,0.8371054209050077],[0.8665364324521215,1.1153504420588738,0.8371054209050077],[0.8665364324521215,1.1153504420588738,0.8371054209050077],[0.8665364324521215,1.1153504420588738,0.8371054209050077],[0.8665364324521215,1.1153504420588738,0.8371054209050077],[0.8665364324521215,1.1153504420588738,0.8371054209050077],[0.8665364324521215,1.1153504420588738,0.8371054209050077],[0.8665364324521215,1.1153504420588738,0.8371054209050077]]'
p90
sS'l1'
p91
(lp92
g24
(g28
S'{\x94\xc5\x9c\xaa\xba\xeb?'
p93
tp94
Rp95
ag24
(g28
S'\x1e\xec\xc2N\x91\xc9\xea?'
p96
tp97
Rp98
ag24
(g28
S'V\x8d\x83\xb4y\xd8\xf1?'
p99
tp100
Rp101
asS'trueParameters'
p102
(lp103
F1.0
aF0.78
aF0.72
asS'f2LastProbability'
p104
F0.44871794871794873
sS'l1TypeProbHistory'
p105
(lp106
F0.22
aF0.5751633986928104
aF0.06340057636887608
aF0.24523920111472364
aF0.6093186517286147
aF0.07234032836298036
aF0.00388393316888734
aF0.018371731812149805
aF0.0009349035988870078
aF4.6786733976026023e-05
aF0.0002245364028501222
aF1.1229215441766126e-05
aF5.389793424071867e-05
aF0.0002586571082369691
aF1.293603410916445e-05
aF6.468096542523846e-07
aF3.2340502584861055e-08
aF1.5523439332997153e-07
aF7.761720811140295e-09
aF3.725625879461724e-08
aF1.862813005662233e-09
aF9.31406504479401e-11
aF4.657032522809075e-12
aF2.3285162614148394e-13
aF1.164258130707677e-14
aF5.82129065353845e-16
aF2.7942195136984493e-15
aF1.3971097568492284e-16
aF6.706126832876293e-16
aF3.353063416438148e-17
aF1.609470439890311e-16
aF8.047352199451554e-18
aF3.8627290557367454e-17
aF1.854109946753637e-16
aF8.899727744417453e-16
aF4.4498638722087285e-17
aF2.1359346586601892e-16
aF1.0679673293300946e-17
aF5.126243180784454e-17
aF2.460596726776537e-16
aF1.2302983633882688e-17
aF5.90543214426369e-17
aF5.905432144263689e-17
assa.