(lp0
(dp1
S'iterationMax'
p2
I10
sS'itemsCounts'
p3
I10
sS'generatedDataNumber'
p4
I10
sS'typeSelectionMode'
p5
S'AS'
p6
sS'simHeight'
p7
I10
sS'endTime'
p8
F1525533976.280114
sS'reuseTree'
p9
S' False'
p10
sS'beginTime'
p11
F1525533917.266709
sS'timeSteps'
p12
I55
sS'agentsCounts'
p13
I1
sS'simWidth'
p14
I10
sS'estimationMode'
p15
S'ABU'
p16
sS'maxDepth'
p17
I10
sa(dp18
I0
(dp19
S'l2TypeProbHistory'
p20
(lp21
F0.36
aF0.04591836734693878
aF0.16822429906542055
aF0.37795275590551175
aF0.052249637155297526
aF0.0028653295128939823
aF0.00014396314543476868
aF7.199907841179632e-06
aF3.599997696001474e-07
aF1.727994691600307e-06
aF8.639998672896202e-08
aF4.3199999668223985e-09
aF2.1599999646969598e-10
aF1.0799999991174236e-11
aF5.1839999796654454e-11
aF2.4883199531491935e-10
aF1.2441599988287286e-11
aF6.220799999707177e-13
aF3.110399999992676e-14
aF1.492991999983132e-13
aF7.166361599990863e-13
aF3.43985356797896e-12
aF1.719926783999472e-13
aF8.59963391999986e-15
aF4.299816959999991e-16
aF2.1499084799999977e-17
aF1.074954239999999e-18
aF5.3747711999999946e-20
aF2.579890175999997e-19
aF1.2899450879999982e-20
aF6.191736422399991e-20
aF2.972033482751995e-19
aF1.4860167413759975e-20
aF7.430083706879986e-22
aF3.7150418534399924e-23
aF1.7832200896511962e-22
aF8.916100448255979e-24
aF4.279728215162869e-23
aF2.139864107581434e-24
aF1.0699320537907167e-25
aF5.135673858195439e-25
aF2.5678369290977192e-26
aF1.232561725966905e-25
aF5.916296284641142e-25
aF2.839822216627748e-24
aF1.4199111083138737e-25
aF6.815573319906592e-25
aF3.4077866599532955e-26
aF1.6357375967775814e-25
aF8.178687983887906e-27
aF4.089343991943952e-28
aF1.9628851161330965e-27
aF9.421848557438861e-27
aF4.71092427871943e-28
aF2.2612436537853257e-27
aF2.2612436537853257e-27
asS'f1'
p22
(lp23
cnumpy.core.multiarray
scalar
p24
(cnumpy
dtype
p25
(S'f8'
p26
I0
I1
tp27
Rp28
(I3
S'<'
p29
NNNI-1
I-1
I0
tp30
bS'{\x94\xc5\x9c\xaa\xba\xeb?'
p31
tp32
Rp33
ag24
(g28
S'\x1e\xec\xc2N\x91\xc9\xea?'
p34
tp35
Rp36
ag24
(g28
S'V\x8d\x83\xb4y\xd8\xf1?'
p37
tp38
Rp39
asS'f2'
p40
(lp41
g24
(g28
S'{\x94\xc5\x9c\xaa\xba\xeb?'
p42
tp43
Rp44
ag24
(g28
S'\x1e\xec\xc2N\x91\xc9\xea?'
p45
tp46
Rp47
ag24
(g28
S'V\x8d\x83\xb4y\xd8\xf1?'
p48
tp49
Rp50
asS'last_estimated_value'
p51
(iparameter_estimation
Parameter
p52
(dp53
S'min_max'
p54
(lp55
(I0
I1
tp56
a(F0.1
I1
tp57
a(F0.1
I1
tp58
asS'radius'
p59
g47
sS'angle'
p60
g50
sS'iteration'
p61
I0
sS'level'
p62
g44
sbsS'l1EstimationHistory'
p63
S'[[0.9,0.62,0.52],[0.15332172194810573,0.3719912009356694,0.368810032210258],[0.30357680076416205,0.5035132863852014,0.45189655090002834],[0.30357680076416205,0.5035132863852014,0.45189655090002834],[0.15332172194810573,0.3719912009356694,0.368810032210258],[0.20893883741237124,0.5150705157026374,0.3935422692711562],[0.2490380001565217,0.59453947415242,0.40062589028654705],[0.15332172194810573,0.3719912009356694,0.368810032210258],[0.15332172194810573,0.3719912009356694,0.368810032210258],[0.2678404719215288,0.5578805391176197,0.4326268792460192],[0.15332172194810573,0.3719912009356694,0.368810032210258],[0.8665364324521267,1.115350442058877,0.8371054209050156],[0.0009017191428554196,0.14383268746213246,0.2606382469726114],[0.18132282753611592,0.31458229277975036,0.3446706703003054],[0.0009017191428554196,0.14383268746213246,0.2606382469726114],[0.1491537117483554,0.5316642292676976,0.32125306918565777],[0.8665364324521267,1.115350442058877,0.8371054209050156],[0.20893883741237124,0.5150705157026374,0.3935422692711562],[0.20893883741237124,0.5150705157026374,0.3935422692711562],[0.1491537117483554,0.5316642292676976,0.32125306918565777],[0.15332172194810573,0.3719912009356694,0.368810032210258],[0.1491537117483554,0.5316642292676976,0.32125306918565777],[0.2490380001565217,0.59453947415242,0.40062589028654705],[0.2490380001565217,0.59453947415242,0.40062589028654705],[0.15332172194810573,0.3719912009356694,0.368810032210258],[0.8665364324521267,1.115350442058877,0.8371054209050156],[0.20893883741237124,0.5150705157026374,0.3935422692711562],[0.18132282753611592,0.31458229277975036,0.3446706703003054],[0.0009017191428554196,0.14383268746213246,0.2606382469726114],[0.2490380001565217,0.59453947415242,0.40062589028654705],[0.30357680076416205,0.5035132863852014,0.45189655090002834],[0.1491537117483554,0.5316642292676976,0.32125306918565777],[0.2490380001565217,0.59453947415242,0.40062589028654705],[0.20893883741237124,0.5150705157026374,0.3935422692711562],[0.15332172194810573,0.3719912009356694,0.368810032210258],[0.30357680076416205,0.5035132863852014,0.45189655090002834],[0.20893883741237124,0.5150705157026374,0.3935422692711562],[0.30357680076416205,0.5035132863852014,0.45189655090002834],[0.8665364324521267,1.115350442058877,0.8371054209050156],[0.18132282753611592,0.31458229277975036,0.3446706703003054],[0.0009017191428554196,0.14383268746213246,0.2606382469726114],[0.18132282753611592,0.31458229277975036,0.3446706703003054],[0.16354455704460527,0.4308361198995567,0.35368060415865504],[0.20893883741237124,0.5150705157026374,0.3935422692711562],[0.30357680076416205,0.5035132863852014,0.45189655090002834],[0.20893883741237124,0.5150705157026374,0.3935422692711562],[0.30357680076416205,0.5035132863852014,0.45189655090002834],[0.15332172194810573,0.3719912009356694,0.368810032210258],[0.30357680076416205,0.5035132863852014,0.45189655090002834],[0.15332172194810573,0.3719912009356694,0.368810032210258],[0.2184166951542792,0.4733865695502958,0.38617905775540756],[0.19819177730555593,0.520652717851104,0.40207710729252444],[0.30357680076416205,0.5035132863852014,0.45189655090002834],[0.18132282753611592,0.31458229277975036,0.3446706703003054],[0.0009017191428554196,0.14383268746213246,0.2606382469726114],[0.8665364324521215,1.1153504420588738,0.8371054209050077]]'
p64
sS'trueType'
p65
S'l1'
p66
sS'f2EstimationHistory'
p67
S'[[0.3,0.98,0.63],[0.8665364324521215,1.1153504420588738,0.8371054209050077],[0.8665364324521215,1.1153504420588738,0.8371054209050077],[0.8665364324521215,1.1153504420588738,0.8371054209050077],[0.8665364324521215,1.1153504420588738,0.8371054209050077],[0.8665364324521215,1.1153504420588738,0.8371054209050077],[0.8665364324521215,1.1153504420588738,0.8371054209050077],[0.8665364324521215,1.1153504420588738,0.8371054209050077],[0.8665364324521215,1.1153504420588738,0.8371054209050077],[0.8665364324521215,1.1153504420588738,0.8371054209050077],[0.8665364324521215,1.1153504420588738,0.8371054209050077],[0.8665364324521215,1.1153504420588738,0.8371054209050077],[0.8665364324521215,1.1153504420588738,0.8371054209050077],[0.8665364324521215,1.1153504420588738,0.8371054209050077],[0.8665364324521215,1.1153504420588738,0.8371054209050077],[0.8665364324521215,1.1153504420588738,0.8371054209050077],[0.8665364324521215,1.1153504420588738,0.8371054209050077],[0.8665364324521215,1.1153504420588738,0.8371054209050077],[0.8665364324521215,1.1153504420588738,0.8371054209050077],[0.8665364324521215,1.1153504420588738,0.8371054209050077],[0.8665364324521215,1.1153504420588738,0.8371054209050077],[0.8665364324521215,1.1153504420588738,0.8371054209050077],[0.8665364324521215,1.1153504420588738,0.8371054209050077],[0.8665364324521215,1.1153504420588738,0.8371054209050077],[0.8665364324521215,1.1153504420588738,0.8371054209050077],[0.8665364324521215,1.1153504420588738,0.8371054209050077],[0.8665364324521215,1.1153504420588738,0.8371054209050077],[0.8665364324521215,1.1153504420588738,0.8371054209050077],[0.8665364324521215,1.1153504420588738,0.8371054209050077],[0.8665364324521215,1.1153504420588738,0.8371054209050077],[0.8665364324521215,1.1153504420588738,0.8371054209050077],[0.8665364324521215,1.1153504420588738,0.8371054209050077],[0.8665364324521215,1.1153504420588738,0.8371054209050077],[0.8665364324521215,1.1153504420588738,0.8371054209050077],[0.8665364324521215,1.1153504420588738,0.8371054209050077],[0.8665364324521215,1.1153504420588738,0.8371054209050077],[0.8665364324521215,1.1153504420588738,0.8371054209050077],[0.8665364324521215,1.1153504420588738,0.8371054209050077],[0.8665364324521215,1.1153504420588738,0.8371054209050077],[0.8665364324521215,1.1153504420588738,0.8371054209050077],[0.8665364324521215,1.1153504420588738,0.8371054209050077],[0.8665364324521215,1.1153504420588738,0.8371054209050077],[0.8665364324521215,1.1153504420588738,0.8371054209050077],[0.8665364324521215,1.1153504420588738,0.8371054209050077],[0.8665364324521215,1.1153504420588738,0.8371054209050077],[0.8665364324521215,1.1153504420588738,0.8371054209050077],[0.8665364324521215,1.1153504420588738,0.8371054209050077],[0.8665364324521215,1.1153504420588738,0.8371054209050077],[0.8665364324521215,1.1153504420588738,0.8371054209050077],[0.8665364324521215,1.1153504420588738,0.8371054209050077],[0.8665364324521215,1.1153504420588738,0.8371054209050077],[0.8665364324521215,1.1153504420588738,0.8371054209050077],[0.8665364324521215,1.1153504420588738,0.8371054209050077],[0.8665364324521215,1.1153504420588738,0.8371054209050077],[0.8665364324521215,1.1153504420588738,0.8371054209050077],[0.8665364324521215,1.1153504420588738,0.8371054209050077]]'
p68
sS'f1TypeProbHistory'
p69
(lp70
F0.32
aF0.8163265306122449
aF0.6230529595015576
aF0.2916302128900554
aF0.8063215610385422
aF0.8843609607697478
aF0.8886613915726463
aF0.888877511256745
aF0.8888883200003641
aF0.8888861582306108
aF0.8888887523555765
aF0.8888888820622223
aF0.8888888743608893
aF0.888888888162489
aF0.8888888854021688
aF0.8888888721526332
aF0.888888888052076
aF0.8888888888470483
aF0.888888888886797
aF0.8888888888788471
aF0.8888888888877565
aF0.8888888888834531
aF0.8888888888886171
aF0.8888888888888754
aF0.8888888888888881
aF0.8888888888888888
aF0.888888888888889
aF0.888888888888889
aF0.888888888888889
aF0.888888888888889
aF0.888888888888889
aF0.888888888888889
aF0.888888888888889
aF0.888888888888889
aF0.888888888888889
aF0.888888888888889
aF0.888888888888889
aF0.888888888888889
aF0.888888888888889
aF0.888888888888889
aF0.888888888888889
aF0.888888888888889
aF0.888888888888889
aF0.888888888888889
aF0.888888888888889
aF0.888888888888889
aF0.888888888888889
aF0.888888888888889
aF0.888888888888889
aF0.888888888888889
aF0.888888888888889
aF0.888888888888889
aF0.888888888888889
aF0.888888888888889
aF0.888888888888889
aF0.888888888888889
asS'l2EstimationHistory'
p71
S'[[0.8,0.44,0.68],[0.15332172194810573,0.3719912009356694,0.368810032210258],[0.30357680076416205,0.5035132863852014,0.45189655090002834],[0.30357680076416205,0.5035132863852014,0.45189655090002834],[0.15332172194810573,0.3719912009356694,0.368810032210258],[0.20893883741237124,0.5150705157026374,0.3935422692711562],[0.2490380001565217,0.59453947415242,0.40062589028654705],[0.15332172194810573,0.3719912009356694,0.368810032210258],[0.15332172194810573,0.3719912009356694,0.368810032210258],[0.2678404719215288,0.5578805391176197,0.4326268792460192],[0.15332172194810573,0.3719912009356694,0.368810032210258],[0.2490380001565217,0.59453947415242,0.40062589028654705],[0.18132282753611592,0.31458229277975036,0.3446706703003054],[0.18132282753611592,0.31458229277975036,0.3446706703003054],[0.0009017191428554196,0.14383268746213246,0.2606382469726114],[0.1491537117483554,0.5316642292676976,0.32125306918565777],[0.2490380001565217,0.59453947415242,0.40062589028654705],[0.20893883741237124,0.5150705157026374,0.3935422692711562],[0.20893883741237124,0.5150705157026374,0.3935422692711562],[0.1491537117483554,0.5316642292676976,0.32125306918565777],[0.30357680076416205,0.5035132863852014,0.45189655090002834],[0.1491537117483554,0.5316642292676976,0.32125306918565777],[0.2490380001565217,0.59453947415242,0.40062589028654705],[0.2490380001565217,0.59453947415242,0.40062589028654705],[0.15332172194810573,0.3719912009356694,0.368810032210258],[0.2490380001565217,0.59453947415242,0.40062589028654705],[0.20893883741237124,0.5150705157026374,0.3935422692711562],[0.18132282753611592,0.31458229277975036,0.3446706703003054],[0.0009017191428554196,0.14383268746213246,0.2606382469726114],[0.2490380001565217,0.59453947415242,0.40062589028654705],[0.30357680076416205,0.5035132863852014,0.45189655090002834],[0.1491537117483554,0.5316642292676976,0.32125306918565777],[0.2490380001565217,0.59453947415242,0.40062589028654705],[0.20893883741237124,0.5150705157026374,0.3935422692711562],[0.15332172194810573,0.3719912009356694,0.368810032210258],[0.30357680076416205,0.5035132863852014,0.45189655090002834],[0.20893883741237124,0.5150705157026374,0.3935422692711562],[0.30357680076416205,0.5035132863852014,0.45189655090002834],[0.2490380001565217,0.59453947415242,0.40062589028654705],[0.18132282753611592,0.31458229277975036,0.3446706703003054],[0.0009017191428554196,0.14383268746213246,0.2606382469726114],[0.18132282753611592,0.31458229277975036,0.3446706703003054],[0.16354455704460527,0.4308361198995567,0.35368060415865504],[0.2678404719215288,0.5578805391176197,0.4326268792460192],[0.30357680076416205,0.5035132863852014,0.45189655090002834],[0.20893883741237124,0.5150705157026374,0.3935422692711562],[0.30357680076416205,0.5035132863852014,0.45189655090002834],[0.15332172194810573,0.3719912009356694,0.368810032210258],[0.30357680076416205,0.5035132863852014,0.45189655090002834],[0.15332172194810573,0.3719912009356694,0.368810032210258],[0.2184166951542792,0.4733865695502958,0.38617905775540756],[0.19819177730555593,0.520652717851104,0.40207710729252444],[0.30357680076416205,0.5035132863852014,0.45189655090002834],[0.18132282753611592,0.31458229277975036,0.3446706703003054],[0.0009017191428554196,0.14383268746213246,0.2606382469726114],[0.8665364324521215,1.1153504420588738,0.8371054209050077]]'
p72
sS'f1LastProbability'
p73
F0.888888888888889
sS'l1LastProbability'
p74
F1.8320261083908894e-29
sS'l2LastProbability'
p75
F2.2612436537853257e-27
sS'f2TypeProbHistory'
p76
(lp77
F0.04
aF0.10204081632653061
aF0.0778816199376947
aF0.03645377661125693
aF0.10079019512981778
aF0.11054512009621847
aF0.11108267394658079
aF0.11110968890709312
aF0.11111104000004551
aF0.11111076977882635
aF0.11111109404444706
aF0.11111111025777778
aF0.11111110929511116
aF0.11111111102031113
aF0.1111111106752711
aF0.11111110901907915
aF0.1111111110065095
aF0.11111111110588104
aF0.11111111111084962
aF0.11111111110985589
aF0.11111111111096957
aF0.11111111111043163
aF0.11111111111107713
aF0.11111111111110943
aF0.11111111111111101
aF0.1111111111111111
aF0.11111111111111112
aF0.11111111111111112
aF0.11111111111111112
aF0.11111111111111112
aF0.11111111111111112
aF0.11111111111111112
aF0.11111111111111112
aF0.11111111111111112
aF0.11111111111111112
aF0.11111111111111112
aF0.11111111111111112
aF0.11111111111111112
aF0.11111111111111112
aF0.11111111111111112
aF0.11111111111111112
aF0.11111111111111112
aF0.11111111111111112
aF0.11111111111111112
aF0.11111111111111112
aF0.11111111111111112
aF0.11111111111111112
aF0.11111111111111112
aF0.11111111111111112
aF0.11111111111111112
aF0.11111111111111112
aF0.11111111111111112
aF0.11111111111111112
aF0.11111111111111112
aF0.11111111111111112
aF0.11111111111111112
asS'l2'
p78
(lp79
g24
(g28
S'{\x94\xc5\x9c\xaa\xba\xeb?'
p80
tp81
Rp82
ag24
(g28
S'\x1e\xec\xc2N\x91\xc9\xea?'
p83
tp84
Rp85
ag24
(g28
S'V\x8d\x83\xb4y\xd8\xf1?'
p86
tp87
Rp88
asS'f1EstimationHistory'
p89
S'[[0.44,0.79,0.25],[0.8665364324521215,1.1153504420588738,0.8371054209050077],[0.8665364324521215,1.1153504420588738,0.8371054209050077],[0.8665364324521215,1.1153504420588738,0.8371054209050077],[0.8665364324521215,1.1153504420588738,0.8371054209050077],[0.8665364324521215,1.1153504420588738,0.8371054209050077],[0.8665364324521215,1.1153504420588738,0.8371054209050077],[0.8665364324521215,1.1153504420588738,0.8371054209050077],[0.8665364324521215,1.1153504420588738,0.8371054209050077],[0.8665364324521215,1.1153504420588738,0.8371054209050077],[0.8665364324521215,1.1153504420588738,0.8371054209050077],[0.8665364324521215,1.1153504420588738,0.8371054209050077],[0.8665364324521215,1.1153504420588738,0.8371054209050077],[0.8665364324521215,1.1153504420588738,0.8371054209050077],[0.8665364324521215,1.1153504420588738,0.8371054209050077],[0.8665364324521215,1.1153504420588738,0.8371054209050077],[0.8665364324521215,1.1153504420588738,0.8371054209050077],[0.8665364324521215,1.1153504420588738,0.8371054209050077],[0.8665364324521215,1.1153504420588738,0.8371054209050077],[0.8665364324521215,1.1153504420588738,0.8371054209050077],[0.8665364324521215,1.1153504420588738,0.8371054209050077],[0.8665364324521215,1.1153504420588738,0.8371054209050077],[0.8665364324521215,1.1153504420588738,0.8371054209050077],[0.8665364324521215,1.1153504420588738,0.8371054209050077],[0.8665364324521215,1.1153504420588738,0.8371054209050077],[0.8665364324521215,1.1153504420588738,0.8371054209050077],[0.8665364324521215,1.1153504420588738,0.8371054209050077],[0.8665364324521215,1.1153504420588738,0.8371054209050077],[0.8665364324521215,1.1153504420588738,0.8371054209050077],[0.8665364324521215,1.1153504420588738,0.8371054209050077],[0.8665364324521215,1.1153504420588738,0.8371054209050077],[0.8665364324521215,1.1153504420588738,0.8371054209050077],[0.8665364324521215,1.1153504420588738,0.8371054209050077],[0.8665364324521215,1.1153504420588738,0.8371054209050077],[0.8665364324521215,1.1153504420588738,0.8371054209050077],[0.8665364324521215,1.1153504420588738,0.8371054209050077],[0.8665364324521215,1.1153504420588738,0.8371054209050077],[0.8665364324521215,1.1153504420588738,0.8371054209050077],[0.8665364324521215,1.1153504420588738,0.8371054209050077],[0.8665364324521215,1.1153504420588738,0.8371054209050077],[0.8665364324521215,1.1153504420588738,0.8371054209050077],[0.8665364324521215,1.1153504420588738,0.8371054209050077],[0.8665364324521215,1.1153504420588738,0.8371054209050077],[0.8665364324521215,1.1153504420588738,0.8371054209050077],[0.8665364324521215,1.1153504420588738,0.8371054209050077],[0.8665364324521215,1.1153504420588738,0.8371054209050077],[0.8665364324521215,1.1153504420588738,0.8371054209050077],[0.8665364324521215,1.1153504420588738,0.8371054209050077],[0.8665364324521215,1.1153504420588738,0.8371054209050077],[0.8665364324521215,1.1153504420588738,0.8371054209050077],[0.8665364324521215,1.1153504420588738,0.8371054209050077],[0.8665364324521215,1.1153504420588738,0.8371054209050077],[0.8665364324521215,1.1153504420588738,0.8371054209050077],[0.8665364324521215,1.1153504420588738,0.8371054209050077],[0.8665364324521215,1.1153504420588738,0.8371054209050077],[0.8665364324521215,1.1153504420588738,0.8371054209050077]]'
p90
sS'l1'
p91
(lp92
g24
(g28
S'{\x94\xc5\x9c\xaa\xba\xeb?'
p93
tp94
Rp95
ag24
(g28
S'\x1e\xec\xc2N\x91\xc9\xea?'
p96
tp97
Rp98
ag24
(g28
S'V\x8d\x83\xb4y\xd8\xf1?'
p99
tp100
Rp101
asS'trueParameters'
p102
(lp103
F1.0
aF0.78
aF0.72
asS'f2LastProbability'
p104
F0.11111111111111112
sS'l1TypeProbHistory'
p105
(lp106
F0.28
aF0.03571428571428572
aF0.1308411214953271
aF0.2939632545931758
aF0.04063860667634252
aF0.002228589621139764
aF0.00011197133533815343
aF5.599928320917493e-06
aF2.799998208001147e-07
aF1.3439958712446834e-06
aF6.719998967808158e-08
aF3.359999974195199e-09
aF1.612799973640397e-08
aF8.063999993410098e-10
aF3.870719984816867e-09
aF1.857945565018065e-08
aF9.28972799125451e-10
aF4.644863999781361e-11
aF2.322431999994533e-12
aF1.1147673599874056e-11
aF5.573836799992895e-13
aF2.6754416639836364e-12
aF1.3377208319995895e-13
aF6.688604159999891e-15
aF3.3443020799999928e-16
aF1.672151039999998e-17
aF8.36075519999999e-19
aF4.180377599999995e-20
aF2.0065812479999973e-19
aF1.0032906239999985e-20
aF4.815794995199992e-20
aF2.3115815976959955e-19
aF1.1557907988479977e-20
aF5.778953994239988e-22
aF2.889476997119993e-23
aF1.3869489586175963e-22
aF6.934744793087981e-24
aF3.32867750068223e-23
aF1.6643387503411147e-24
aF8.321693751705573e-26
aF3.994413000818674e-25
aF1.9972065004093367e-26
aF9.586591201964814e-26
aF4.793295600982407e-27
aF2.3007818884715548e-26
aF1.1503909442357773e-27
aF5.52187653233173e-27
aF2.760938266165865e-28
aF1.325250367759615e-27
aF6.626251838798073e-29
aF3.3131259193990366e-30
aF1.5903004413115372e-29
aF7.633442118295378e-29
aF3.816721059147688e-30
aF1.8320261083908896e-29
aF1.8320261083908894e-29
assa.