(lp0
(dp1
S'iterationMax'
p2
I10
sS'itemsCounts'
p3
I10
sS'generatedDataNumber'
p4
I10
sS'typeSelectionMode'
p5
S'AS'
p6
sS'simHeight'
p7
I10
sS'endTime'
p8
F1525534233.13084
sS'reuseTree'
p9
S' False'
p10
sS'beginTime'
p11
F1525534218.322013
sS'timeSteps'
p12
I32
sS'agentsCounts'
p13
I1
sS'simWidth'
p14
I10
sS'estimationMode'
p15
S'ABU'
p16
sS'maxDepth'
p17
I10
sa(dp18
I0
(dp19
S'l2TypeProbHistory'
p20
(lp21
F0.39
aF0.5984654731457799
aF0.16295264623955433
aF0.41403715718077266
aF0.6097830217702095
aF0.1812743431387317
aF0.012041235227188262
aF0.05423461104714733
aF0.0029283764451558613
aF0.00014700605349428827
aF7.3495394501489646e-06
aF3.6758693780251716e-07
aF1.7643117094981676e-06
aF8.466264211174427e-06
aF4.234591386075013e-07
aF2.117332188255131e-08
aF1.0163159467732594e-07
aF4.878235823430384e-07
aF2.3415942647822376e-06
aF1.1239508867133456e-05
aF5.619840596079671e-07
aF2.809922452137337e-08
aF1.4049612799211492e-09
aF7.024806413068867e-11
aF3.5124032068710106e-12
aF1.7562016034439197e-13
aF8.429767696522736e-13
aF4.214883848266214e-14
aF2.1074419241332283e-15
aF1.0115721235839376e-14
aF5.057860617919758e-16
aF2.427773096601477e-15
aF2.427773096601477e-15
asS'f1'
p22
(lp23
cnumpy.core.multiarray
scalar
p24
(cnumpy
dtype
p25
(S'f8'
p26
I0
I1
tp27
Rp28
(I3
S'<'
p29
NNNI-1
I-1
I0
tp30
bS'{\x94\xc5\x9c\xaa\xba\xeb?'
p31
tp32
Rp33
ag24
(g28
S'\x1e\xec\xc2N\x91\xc9\xea?'
p34
tp35
Rp36
ag24
(g28
S'V\x8d\x83\xb4y\xd8\xf1?'
p37
tp38
Rp39
asS'f2'
p40
(lp41
g24
(g28
S'{\x94\xc5\x9c\xaa\xba\xeb?'
p42
tp43
Rp44
ag24
(g28
S'\x1e\xec\xc2N\x91\xc9\xea?'
p45
tp46
Rp47
ag24
(g28
S'V\x8d\x83\xb4y\xd8\xf1?'
p48
tp49
Rp50
asS'last_estimated_value'
p51
(iparameter_estimation
Parameter
p52
(dp53
S'min_max'
p54
(lp55
(I0
I1
tp56
a(F0.1
I1
tp57
a(F0.1
I1
tp58
asS'radius'
p59
g47
sS'angle'
p60
g50
sS'iteration'
p61
I0
sS'level'
p62
g44
sbsS'l1EstimationHistory'
p63
S'[[0.88,0.89,0.35],[0.30357680076416205,0.5035132863852014,0.45189655090002834],[0.15332172194810573,0.3719912009356694,0.368810032210258],[0.30357680076416205,0.5035132863852014,0.45189655090002834],[0.1491537117483554,0.5316642292676976,0.32125306918565777],[0.15332172194810573,0.3719912009356694,0.368810032210258],[0.15332172194810573,0.3719912009356694,0.368810032210258],[0.2678404719215288,0.5578805391176197,0.4326268792460192],[0.15332172194810573,0.3719912009356694,0.368810032210258],[0.8665364324521267,1.115350442058877,0.8371054209050156],[0.0009017191428554196,0.14383268746213246,0.2606382469726114],[0.18132282753611592,0.31458229277975036,0.3446706703003054],[0.0009017191428554196,0.14383268746213246,0.2606382469726114],[0.1491537117483554,0.5316642292676976,0.32125306918565777],[0.8665364324521267,1.115350442058877,0.8371054209050156],[0.23551720575333937,0.6155881566331232,0.44013329248228683],[0.32736167289591067,0.6724014043953669,0.5084255488331686],[0.1491537117483554,0.5316642292676976,0.32125306918565777],[0.15332172194810573,0.3719912009356694,0.368810032210258],[0.1491537117483554,0.5316642292676976,0.32125306918565777],[0.2490380001565217,0.59453947415242,0.40062589028654705],[0.2490380001565217,0.59453947415242,0.40062589028654705],[0.15332172194810573,0.3719912009356694,0.368810032210258],[0.8665364324521267,1.115350442058877,0.8371054209050156],[0.20893883741237124,0.5150705157026374,0.3935422692711562],[0.18132282753611592,0.31458229277975036,0.3446706703003054],[0.0009017191428554196,0.14383268746213246,0.2606382469726114],[-0.06795719319630239,-0.10889159067758196,0.1285933615310505],[0.14099024136121974,0.36699733535803436,0.30694729457789877],[0.30357680076416205,0.5035132863852014,0.45189655090002834],[0.18132282753611592,0.31458229277975036,0.3446706703003054],[0.0009017191428554196,0.14383268746213246,0.2606382469726114],[0.8665364324521215,1.1153504420588738,0.8371054209050077]]'
p64
sS'trueType'
p65
S'l1'
p66
sS'f2EstimationHistory'
p67
S'[[0.57,0.31,0.54],[0.8665364324521215,1.1153504420588738,0.8371054209050077],[0.8665364324521215,1.1153504420588738,0.8371054209050077],[0.8665364324521215,1.1153504420588738,0.8371054209050077],[0.8665364324521215,1.1153504420588738,0.8371054209050077],[0.8665364324521215,1.1153504420588738,0.8371054209050077],[0.8665364324521215,1.1153504420588738,0.8371054209050077],[0.8665364324521215,1.1153504420588738,0.8371054209050077],[0.8665364324521215,1.1153504420588738,0.8371054209050077],[0.8665364324521215,1.1153504420588738,0.8371054209050077],[0.8665364324521215,1.1153504420588738,0.8371054209050077],[0.8665364324521215,1.1153504420588738,0.8371054209050077],[0.8665364324521215,1.1153504420588738,0.8371054209050077],[0.8665364324521215,1.1153504420588738,0.8371054209050077],[0.8665364324521215,1.1153504420588738,0.8371054209050077],[0.8665364324521215,1.1153504420588738,0.8371054209050077],[0.8665364324521215,1.1153504420588738,0.8371054209050077],[0.8665364324521215,1.1153504420588738,0.8371054209050077],[0.8665364324521215,1.1153504420588738,0.8371054209050077],[0.8665364324521215,1.1153504420588738,0.8371054209050077],[0.8665364324521215,1.1153504420588738,0.8371054209050077],[0.8665364324521215,1.1153504420588738,0.8371054209050077],[0.8665364324521215,1.1153504420588738,0.8371054209050077],[0.8665364324521215,1.1153504420588738,0.8371054209050077],[0.8665364324521215,1.1153504420588738,0.8371054209050077],[0.8665364324521215,1.1153504420588738,0.8371054209050077],[0.8665364324521215,1.1153504420588738,0.8371054209050077],[0.8665364324521215,1.1153504420588738,0.8371054209050077],[0.8665364324521215,1.1153504420588738,0.8371054209050077],[0.8665364324521215,1.1153504420588738,0.8371054209050077],[0.8665364324521215,1.1153504420588738,0.8371054209050077],[0.8665364324521215,1.1153504420588738,0.8371054209050077],[0.8665364324521215,1.1153504420588738,0.8371054209050077]]'
p68
sS'f1TypeProbHistory'
p69
(lp70
F0.33
aF0.10549872122762147
aF0.5745125348189416
aF0.30411383072839876
aF0.09331059193977455
aF0.5547814766198275
aF0.7370325159091818
aF0.6915934957953798
aF0.7468463638282936
aF0.7498416857885445
aF0.7497638253765154
aF0.7499881877351332
aF0.7499433045217966
aF0.7497279398558292
aF0.7499863923034495
aF0.7499993196034447
aF0.749996734107794
aF0.7499843239768057
aF0.7499974782830994
aF0.7499878959135277
aF0.7499993947863971
aF0.7499999697392966
aF0.7499999984869646
aF0.7499999999243482
aF0.7499999999962174
aF0.7499999999998108
aF0.7499999999990921
aF0.7499999999999545
aF0.7499999999999977
aF0.749999999999989
aF0.7499999999999994
aF0.7499999999999973
aF0.7499999999999973
asS'l2EstimationHistory'
p71
S'[[0.01,0.88,0.61],[0.30357680076416205,0.5035132863852014,0.45189655090002834],[0.15332172194810573,0.3719912009356694,0.368810032210258],[0.30357680076416205,0.5035132863852014,0.45189655090002834],[0.1491537117483554,0.5316642292676976,0.32125306918565777],[0.15332172194810573,0.3719912009356694,0.368810032210258],[0.15332172194810573,0.3719912009356694,0.368810032210258],[0.2678404719215288,0.5578805391176197,0.4326268792460192],[0.15332172194810573,0.3719912009356694,0.368810032210258],[0.2490380001565217,0.59453947415242,0.40062589028654705],[0.18132282753611592,0.31458229277975036,0.3446706703003054],[0.18132282753611592,0.31458229277975036,0.3446706703003054],[0.0009017191428554196,0.14383268746213246,0.2606382469726114],[0.1491537117483554,0.5316642292676976,0.32125306918565777],[0.2490380001565217,0.59453947415242,0.40062589028654705],[0.23551720575333937,0.6155881566331232,0.44013329248228683],[0.32736167289591067,0.6724014043953669,0.5084255488331686],[0.1491537117483554,0.5316642292676976,0.32125306918565777],[0.30357680076416205,0.5035132863852014,0.45189655090002834],[0.1491537117483554,0.5316642292676976,0.32125306918565777],[0.2490380001565217,0.59453947415242,0.40062589028654705],[0.2490380001565217,0.59453947415242,0.40062589028654705],[0.15332172194810573,0.3719912009356694,0.368810032210258],[0.2490380001565217,0.59453947415242,0.40062589028654705],[0.20893883741237124,0.5150705157026374,0.3935422692711562],[0.18132282753611592,0.31458229277975036,0.3446706703003054],[0.0009017191428554196,0.14383268746213246,0.2606382469726114],[-0.06795719319630239,-0.10889159067758196,0.1285933615310505],[0.14099024136121974,0.36699733535803436,0.30694729457789877],[0.30357680076416205,0.5035132863852014,0.45189655090002834],[0.18132282753611592,0.31458229277975036,0.3446706703003054],[0.0009017191428554196,0.14383268746213246,0.2606382469726114],[0.8665364324521215,1.1153504420588738,0.8371054209050077]]'
p72
sS'f1LastProbability'
p73
F0.7499999999999973
sS'l1LastProbability'
p74
F1.0582600677493612e-15
sS'l2LastProbability'
p75
F2.427773096601477e-15
sS'f2TypeProbHistory'
p76
(lp77
F0.11
aF0.035166240409207156
aF0.19150417827298052
aF0.10137127690946625
aF0.031103530646591517
aF0.18492715887327585
aF0.24567750530306065
aF0.23053116526512663
aF0.2489487879427646
aF0.24994722859618154
aF0.2499212751255052
aF0.2499960625783778
aF0.24998110150726566
aF0.24990931328527652
aF0.24999546410115
aF0.2499997732011484
aF0.24999891136926483
aF0.2499947746589354
aF0.24999915942769996
aF0.2499959653045094
aF0.24999979826213256
aF0.24999998991309905
aF0.24999999949565505
aF0.24999999997478284
aF0.2499999999987392
aF0.24999999999993702
aF0.24999999999969746
aF0.24999999999998493
aF0.24999999999999933
aF0.24999999999999642
aF0.24999999999999992
aF0.24999999999999922
aF0.24999999999999925
asS'l2'
p78
(lp79
g24
(g28
S'{\x94\xc5\x9c\xaa\xba\xeb?'
p80
tp81
Rp82
ag24
(g28
S'\x1e\xec\xc2N\x91\xc9\xea?'
p83
tp84
Rp85
ag24
(g28
S'V\x8d\x83\xb4y\xd8\xf1?'
p86
tp87
Rp88
asS'f1EstimationHistory'
p89
S'[[0.43,0.81,0.15],[0.8665364324521215,1.1153504420588738,0.8371054209050077],[0.8665364324521215,1.1153504420588738,0.8371054209050077],[0.8665364324521215,1.1153504420588738,0.8371054209050077],[0.8665364324521215,1.1153504420588738,0.8371054209050077],[0.8665364324521215,1.1153504420588738,0.8371054209050077],[0.8665364324521215,1.1153504420588738,0.8371054209050077],[0.8665364324521215,1.1153504420588738,0.8371054209050077],[0.8665364324521215,1.1153504420588738,0.8371054209050077],[0.8665364324521215,1.1153504420588738,0.8371054209050077],[0.8665364324521215,1.1153504420588738,0.8371054209050077],[0.8665364324521215,1.1153504420588738,0.8371054209050077],[0.8665364324521215,1.1153504420588738,0.8371054209050077],[0.8665364324521215,1.1153504420588738,0.8371054209050077],[0.8665364324521215,1.1153504420588738,0.8371054209050077],[0.8665364324521215,1.1153504420588738,0.8371054209050077],[0.8665364324521215,1.1153504420588738,0.8371054209050077],[0.8665364324521215,1.1153504420588738,0.8371054209050077],[0.8665364324521215,1.1153504420588738,0.8371054209050077],[0.8665364324521215,1.1153504420588738,0.8371054209050077],[0.8665364324521215,1.1153504420588738,0.8371054209050077],[0.8665364324521215,1.1153504420588738,0.8371054209050077],[0.8665364324521215,1.1153504420588738,0.8371054209050077],[0.8665364324521215,1.1153504420588738,0.8371054209050077],[0.8665364324521215,1.1153504420588738,0.8371054209050077],[0.8665364324521215,1.1153504420588738,0.8371054209050077],[0.8665364324521215,1.1153504420588738,0.8371054209050077],[0.8665364324521215,1.1153504420588738,0.8371054209050077],[0.8665364324521215,1.1153504420588738,0.8371054209050077],[0.8665364324521215,1.1153504420588738,0.8371054209050077],[0.8665364324521215,1.1153504420588738,0.8371054209050077],[0.8665364324521215,1.1153504420588738,0.8371054209050077],[0.8665364324521215,1.1153504420588738,0.8371054209050077]]'
p90
sS'l1'
p91
(lp92
g24
(g28
S'{\x94\xc5\x9c\xaa\xba\xeb?'
p93
tp94
Rp95
ag24
(g28
S'\x1e\xec\xc2N\x91\xc9\xea?'
p96
tp97
Rp98
ag24
(g28
S'V\x8d\x83\xb4y\xd8\xf1?'
p99
tp100
Rp101
asS'trueParameters'
p102
(lp103
F1.0
aF0.78
aF0.72
asS'f2LastProbability'
p104
F0.24999999999999925
sS'l1TypeProbHistory'
p105
(lp106
F0.17
aF0.26086956521739124
aF0.07103064066852367
aF0.1804777351813624
aF0.26580285564342454
aF0.07901702136816505
aF0.005248743560569239
aF0.023640727892346253
aF0.0012764717837858873
aF6.40795617795615e-05
aF0.0003075499585293103
aF1.5382099551120707e-05
aF7.382965922823096e-05
aF0.0003542805946829911
aF1.772013626172927e-05
aF8.86022084931377e-07
aF4.252891346497327e-06
aF2.0413540676508664e-05
aF1.020694935930718e-06
aF4.8992730959299636e-06
aF2.449674105983444e-07
aF1.2248379919573e-08
aF6.124190194528082e-10
aF3.06209510313258e-11
aF1.5310475517130032e-12
aF7.655237758601694e-14
aF3.674514124125292e-13
aF1.8372570620647585e-14
aF9.186285310324321e-16
aF4.409416948955623e-15
aF2.204708474477842e-16
aF1.058260067749361e-15
aF1.0582600677493612e-15
assa.